
./ALU/output/deploy.shakti:     file format elf64-littleriscv


Disassembly of section .text.init:

0000000080000000 <_start>:
    80000000:	00001297          	auipc	t0,0x1
    80000004:	99828293          	addi	t0,t0,-1640 # 80000998 <trap_entry>
    80000008:	30529073          	csrw	mtvec,t0
    8000000c:	42ad                	li	t0,11
    8000000e:	3002b073          	csrc	mstatus,t0
    80000012:	6285                	lui	t0,0x1
    80000014:	8882829b          	addiw	t0,t0,-1912
    80000018:	3042b073          	csrc	mie,t0
    8000001c:	0c002fb7          	lui	t6,0xc002
    80000020:	000e7e13          	andi	t3,t3,0
    80000024:	000e0e13          	mv	t3,t3
    80000028:	01cf8023          	sb	t3,0(t6) # c002000 <_free_space+0x4016d28>
    8000002c:	01cf80a3          	sb	t3,1(t6)
    80000030:	01cf8123          	sb	t3,2(t6)
    80000034:	01cf81a3          	sb	t3,3(t6)
    80000038:	0c000fb7          	lui	t6,0xc000
    8000003c:	000e7e13          	andi	t3,t3,0
    80000040:	01cf8023          	sb	t3,0(t6) # c000000 <_free_space+0x4014d28>
    80000044:	01cf80a3          	sb	t3,1(t6)
    80000048:	01cf8123          	sb	t3,2(t6)
    8000004c:	01cf81a3          	sb	t3,3(t6)
    80000050:	4081                	li	ra,0
    80000052:	4101                	li	sp,0
    80000054:	4181                	li	gp,0
    80000056:	4201                	li	tp,0
    80000058:	4281                	li	t0,0
    8000005a:	4301                	li	t1,0
    8000005c:	4381                	li	t2,0
    8000005e:	4401                	li	s0,0
    80000060:	4481                	li	s1,0
    80000062:	4501                	li	a0,0
    80000064:	4581                	li	a1,0
    80000066:	4601                	li	a2,0
    80000068:	4681                	li	a3,0
    8000006a:	4701                	li	a4,0
    8000006c:	4781                	li	a5,0
    8000006e:	4801                	li	a6,0
    80000070:	4881                	li	a7,0
    80000072:	4901                	li	s2,0
    80000074:	4981                	li	s3,0
    80000076:	4a01                	li	s4,0
    80000078:	4a81                	li	s5,0
    8000007a:	4b01                	li	s6,0
    8000007c:	4b81                	li	s7,0
    8000007e:	4c01                	li	s8,0
    80000080:	4c81                	li	s9,0
    80000082:	4d01                	li	s10,0
    80000084:	4d81                	li	s11,0
    80000086:	4e01                	li	t3,0
    80000088:	4e81                	li	t4,0
    8000008a:	4f01                	li	t5,0
    8000008c:	4f81                	li	t6,0
    8000008e:	00005197          	auipc	gp,0x5
    80000092:	73a18193          	addi	gp,gp,1850 # 800057c8 <__global_pointer$>

0000000080000096 <init_bss>:
    80000096:	0000d517          	auipc	a0,0xd
    8000009a:	fea50513          	addi	a0,a0,-22 # 8000d080 <u0_rcv_char>
    8000009e:	00015597          	auipc	a1,0x15
    800000a2:	88658593          	addi	a1,a1,-1914 # 80014924 <isr_table+0xcc>
    800000a6:	4601                	li	a2,0
    800000a8:	c110                	sw	a2,0(a0)
    800000aa:	00b57463          	bgeu	a0,a1,800000b2 <init_sbss>
    800000ae:	0511                	addi	a0,a0,4
    800000b0:	bfe5                	j	800000a8 <init_bss+0x12>

00000000800000b2 <init_sbss>:
    800000b2:	89018513          	addi	a0,gp,-1904 # 80005058 <uart0_complete>
    800000b6:	8a818593          	addi	a1,gp,-1880 # 80005070 <uart2_rcv_isr_count>
    800000ba:	4601                	li	a2,0
    800000bc:	c110                	sw	a2,0(a0)
    800000be:	00b57463          	bgeu	a0,a1,800000c6 <init_sbss+0x14>
    800000c2:	0511                	addi	a0,a0,4
    800000c4:	bfe5                	j	800000bc <init_sbss+0xa>
    800000c6:	08000117          	auipc	sp,0x8000
    800000ca:	b3a10113          	addi	sp,sp,-1222 # 87fffc00 <__stack_pointer$>
    800000ce:	00015217          	auipc	tp,0x15
    800000d2:	89920213          	addi	tp,tp,-1895 # 80014967 <__bss_end+0x3f>
    800000d6:	fc027213          	andi	tp,tp,-64
    800000da:	0d00206f          	j	800021aa <init>
    800000de:	a001                	j	800000de <init_sbss+0x2c>

Disassembly of section .text:

00000000800000e0 <deploy>:
    800000e0:	1101                	addi	sp,sp,-32
    800000e2:	ec06                	sd	ra,24(sp)
    800000e4:	e822                	sd	s0,16(sp)
    800000e6:	1000                	addi	s0,sp,32
    800000e8:	00b007b7          	lui	a5,0xb00
    800000ec:	fef42623          	sw	a5,-20(s0)
    800000f0:	fe043023          	sd	zero,-32(s0)
    800000f4:	4501                	li	a0,0
    800000f6:	11a000ef          	jal	ra,80000210 <configure_spi>
    800000fa:	25e000ef          	jal	ra,80000358 <spi_init>
    800000fe:	7e2000ef          	jal	ra,800008e0 <flash_device_id>
    80000102:	0c800513          	li	a0,200
    80000106:	131000ef          	jal	ra,80000a36 <waitfor>
    8000010a:	00004517          	auipc	a0,0x4
    8000010e:	e9650513          	addi	a0,a0,-362 # 80003fa0 <__rodata_start>
    80000112:	51a010ef          	jal	ra,8000162c <printf>
    80000116:	374000ef          	jal	ra,8000048a <flash_write_enable>
    8000011a:	fec42783          	lw	a5,-20(s0)
    8000011e:	853e                	mv	a0,a5
    80000120:	754000ef          	jal	ra,80000874 <flash_erase>
    80000124:	776000ef          	jal	ra,8000089a <flash_status_register_read>
    80000128:	00004517          	auipc	a0,0x4
    8000012c:	e8850513          	addi	a0,a0,-376 # 80003fb0 <__rodata_start+0x10>
    80000130:	4fc010ef          	jal	ra,8000162c <printf>
    80000134:	00005797          	auipc	a5,0x5
    80000138:	f4478793          	addi	a5,a5,-188 # 80005078 <write_data>
    8000013c:	439c                	lw	a5,0(a5)
    8000013e:	0007871b          	sext.w	a4,a5
    80000142:	fec42783          	lw	a5,-20(s0)
    80000146:	85ba                	mv	a1,a4
    80000148:	853e                	mv	a0,a5
    8000014a:	588000ef          	jal	ra,800006d2 <flash_write>
    8000014e:	fec42783          	lw	a5,-20(s0)
    80000152:	2791                	addiw	a5,a5,4
    80000154:	fef42623          	sw	a5,-20(s0)
    80000158:	00004517          	auipc	a0,0x4
    8000015c:	e7050513          	addi	a0,a0,-400 # 80003fc8 <__rodata_start+0x28>
    80000160:	4cc010ef          	jal	ra,8000162c <printf>
    80000164:	fe042423          	sw	zero,-24(s0)
    80000168:	a8b1                	j	800001c4 <deploy+0xe4>
    8000016a:	0c800513          	li	a0,200
    8000016e:	0c9000ef          	jal	ra,80000a36 <waitfor>
    80000172:	fe842783          	lw	a5,-24(s0)
    80000176:	2785                	addiw	a5,a5,1
    80000178:	2781                	sext.w	a5,a5
    8000017a:	00005717          	auipc	a4,0x5
    8000017e:	efe70713          	addi	a4,a4,-258 # 80005078 <write_data>
    80000182:	078a                	slli	a5,a5,0x2
    80000184:	97ba                	add	a5,a5,a4
    80000186:	439c                	lw	a5,0(a5)
    80000188:	0007871b          	sext.w	a4,a5
    8000018c:	fec42783          	lw	a5,-20(s0)
    80000190:	85ba                	mv	a1,a4
    80000192:	853e                	mv	a0,a5
    80000194:	53e000ef          	jal	ra,800006d2 <flash_write>
    80000198:	fec42783          	lw	a5,-20(s0)
    8000019c:	2791                	addiw	a5,a5,4
    8000019e:	fef42623          	sw	a5,-20(s0)
    800001a2:	fe842783          	lw	a5,-24(s0)
    800001a6:	1ff7f793          	andi	a5,a5,511
    800001aa:	2781                	sext.w	a5,a5
    800001ac:	e799                	bnez	a5,800001ba <deploy+0xda>
    800001ae:	00004517          	auipc	a0,0x4
    800001b2:	e2a50513          	addi	a0,a0,-470 # 80003fd8 <__rodata_start+0x38>
    800001b6:	476010ef          	jal	ra,8000162c <printf>
    800001ba:	fe842783          	lw	a5,-24(s0)
    800001be:	2785                	addiw	a5,a5,1
    800001c0:	fef42423          	sw	a5,-24(s0)
    800001c4:	00005797          	auipc	a5,0x5
    800001c8:	eb478793          	addi	a5,a5,-332 # 80005078 <write_data>
    800001cc:	4398                	lw	a4,0(a5)
    800001ce:	fe842783          	lw	a5,-24(s0)
    800001d2:	f8e7ece3          	bltu	a5,a4,8000016a <deploy+0x8a>
    800001d6:	00004517          	auipc	a0,0x4
    800001da:	e0a50513          	addi	a0,a0,-502 # 80003fe0 <__rodata_start+0x40>
    800001de:	44e010ef          	jal	ra,8000162c <printf>
    800001e2:	00004517          	auipc	a0,0x4
    800001e6:	e1650513          	addi	a0,a0,-490 # 80003ff8 <__rodata_start+0x58>
    800001ea:	442010ef          	jal	ra,8000162c <printf>
    800001ee:	9002                	ebreak
    800001f0:	0001                	nop
    800001f2:	60e2                	ld	ra,24(sp)
    800001f4:	6442                	ld	s0,16(sp)
    800001f6:	6105                	addi	sp,sp,32
    800001f8:	8082                	ret

00000000800001fa <main>:
    800001fa:	1141                	addi	sp,sp,-16
    800001fc:	e406                	sd	ra,8(sp)
    800001fe:	e022                	sd	s0,0(sp)
    80000200:	0800                	addi	s0,sp,16
    80000202:	edfff0ef          	jal	ra,800000e0 <deploy>
    80000206:	0001                	nop
    80000208:	60a2                	ld	ra,8(sp)
    8000020a:	6402                	ld	s0,0(sp)
    8000020c:	0141                	addi	sp,sp,16
    8000020e:	8082                	ret

0000000080000210 <configure_spi>:
    80000210:	1101                	addi	sp,sp,-32
    80000212:	ec22                	sd	s0,24(sp)
    80000214:	1000                	addi	s0,sp,32
    80000216:	87aa                	mv	a5,a0
    80000218:	fef42623          	sw	a5,-20(s0)
    8000021c:	fec42703          	lw	a4,-20(s0)
    80000220:	000207b7          	lui	a5,0x20
    80000224:	9fb9                	addw	a5,a5,a4
    80000226:	2781                	sext.w	a5,a5
    80000228:	873e                	mv	a4,a5
    8000022a:	00005797          	auipc	a5,0x5
    8000022e:	da678793          	addi	a5,a5,-602 # 80004fd0 <spi_cr1>
    80000232:	e398                	sd	a4,0(a5)
    80000234:	fec42703          	lw	a4,-20(s0)
    80000238:	000207b7          	lui	a5,0x20
    8000023c:	2791                	addiw	a5,a5,4
    8000023e:	9fb9                	addw	a5,a5,a4
    80000240:	2781                	sext.w	a5,a5
    80000242:	873e                	mv	a4,a5
    80000244:	81018793          	addi	a5,gp,-2032 # 80004fd8 <spi_cr2>
    80000248:	e398                	sd	a4,0(a5)
    8000024a:	fec42703          	lw	a4,-20(s0)
    8000024e:	000207b7          	lui	a5,0x20
    80000252:	27a1                	addiw	a5,a5,8
    80000254:	9fb9                	addw	a5,a5,a4
    80000256:	2781                	sext.w	a5,a5
    80000258:	873e                	mv	a4,a5
    8000025a:	81818793          	addi	a5,gp,-2024 # 80004fe0 <spi_sr>
    8000025e:	e398                	sd	a4,0(a5)
    80000260:	fec42703          	lw	a4,-20(s0)
    80000264:	000207b7          	lui	a5,0x20
    80000268:	27b1                	addiw	a5,a5,12
    8000026a:	9fb9                	addw	a5,a5,a4
    8000026c:	2781                	sext.w	a5,a5
    8000026e:	873e                	mv	a4,a5
    80000270:	82018793          	addi	a5,gp,-2016 # 80004fe8 <spi_dr1>
    80000274:	e398                	sd	a4,0(a5)
    80000276:	fec42703          	lw	a4,-20(s0)
    8000027a:	000207b7          	lui	a5,0x20
    8000027e:	27c1                	addiw	a5,a5,16
    80000280:	9fb9                	addw	a5,a5,a4
    80000282:	2781                	sext.w	a5,a5
    80000284:	873e                	mv	a4,a5
    80000286:	82818793          	addi	a5,gp,-2008 # 80004ff0 <spi_dr2>
    8000028a:	e398                	sd	a4,0(a5)
    8000028c:	fec42703          	lw	a4,-20(s0)
    80000290:	000207b7          	lui	a5,0x20
    80000294:	27d1                	addiw	a5,a5,20
    80000296:	9fb9                	addw	a5,a5,a4
    80000298:	2781                	sext.w	a5,a5
    8000029a:	873e                	mv	a4,a5
    8000029c:	83018793          	addi	a5,gp,-2000 # 80004ff8 <spi_dr3>
    800002a0:	e398                	sd	a4,0(a5)
    800002a2:	fec42703          	lw	a4,-20(s0)
    800002a6:	000207b7          	lui	a5,0x20
    800002aa:	27e1                	addiw	a5,a5,24
    800002ac:	9fb9                	addw	a5,a5,a4
    800002ae:	2781                	sext.w	a5,a5
    800002b0:	873e                	mv	a4,a5
    800002b2:	83818793          	addi	a5,gp,-1992 # 80005000 <spi_dr4>
    800002b6:	e398                	sd	a4,0(a5)
    800002b8:	fec42703          	lw	a4,-20(s0)
    800002bc:	000207b7          	lui	a5,0x20
    800002c0:	27f1                	addiw	a5,a5,28
    800002c2:	9fb9                	addw	a5,a5,a4
    800002c4:	2781                	sext.w	a5,a5
    800002c6:	873e                	mv	a4,a5
    800002c8:	84018793          	addi	a5,gp,-1984 # 80005008 <spi_dr5>
    800002cc:	e398                	sd	a4,0(a5)
    800002ce:	fec42703          	lw	a4,-20(s0)
    800002d2:	000207b7          	lui	a5,0x20
    800002d6:	0207879b          	addiw	a5,a5,32
    800002da:	9fb9                	addw	a5,a5,a4
    800002dc:	2781                	sext.w	a5,a5
    800002de:	873e                	mv	a4,a5
    800002e0:	84818793          	addi	a5,gp,-1976 # 80005010 <spi_crcpr>
    800002e4:	e398                	sd	a4,0(a5)
    800002e6:	fec42703          	lw	a4,-20(s0)
    800002ea:	000207b7          	lui	a5,0x20
    800002ee:	0247879b          	addiw	a5,a5,36
    800002f2:	9fb9                	addw	a5,a5,a4
    800002f4:	2781                	sext.w	a5,a5
    800002f6:	873e                	mv	a4,a5
    800002f8:	85018793          	addi	a5,gp,-1968 # 80005018 <spi_rxcrcr>
    800002fc:	e398                	sd	a4,0(a5)
    800002fe:	fec42703          	lw	a4,-20(s0)
    80000302:	000207b7          	lui	a5,0x20
    80000306:	0287879b          	addiw	a5,a5,40
    8000030a:	9fb9                	addw	a5,a5,a4
    8000030c:	2781                	sext.w	a5,a5
    8000030e:	873e                	mv	a4,a5
    80000310:	85818793          	addi	a5,gp,-1960 # 80005020 <spi_txcrcr>
    80000314:	e398                	sd	a4,0(a5)
    80000316:	0001                	nop
    80000318:	6462                	ld	s0,24(sp)
    8000031a:	6105                	addi	sp,sp,32
    8000031c:	8082                	ret

000000008000031e <set_spi>:
    8000031e:	1101                	addi	sp,sp,-32
    80000320:	ec22                	sd	s0,24(sp)
    80000322:	1000                	addi	s0,sp,32
    80000324:	fea43423          	sd	a0,-24(s0)
    80000328:	87ae                	mv	a5,a1
    8000032a:	fef42223          	sw	a5,-28(s0)
    8000032e:	fe843783          	ld	a5,-24(s0)
    80000332:	fe442703          	lw	a4,-28(s0)
    80000336:	c398                	sw	a4,0(a5)
    80000338:	0001                	nop
    8000033a:	6462                	ld	s0,24(sp)
    8000033c:	6105                	addi	sp,sp,32
    8000033e:	8082                	ret

0000000080000340 <get_spi>:
    80000340:	1101                	addi	sp,sp,-32
    80000342:	ec22                	sd	s0,24(sp)
    80000344:	1000                	addi	s0,sp,32
    80000346:	fea43423          	sd	a0,-24(s0)
    8000034a:	fe843783          	ld	a5,-24(s0)
    8000034e:	439c                	lw	a5,0(a5)
    80000350:	853e                	mv	a0,a5
    80000352:	6462                	ld	s0,24(sp)
    80000354:	6105                	addi	sp,sp,32
    80000356:	8082                	ret

0000000080000358 <spi_init>:
    80000358:	1141                	addi	sp,sp,-16
    8000035a:	e406                	sd	ra,8(sp)
    8000035c:	e022                	sd	s0,0(sp)
    8000035e:	0800                	addi	s0,sp,16
    80000360:	00005797          	auipc	a5,0x5
    80000364:	c7078793          	addi	a5,a5,-912 # 80004fd0 <spi_cr1>
    80000368:	639c                	ld	a5,0(a5)
    8000036a:	03b00593          	li	a1,59
    8000036e:	853e                	mv	a0,a5
    80000370:	fafff0ef          	jal	ra,8000031e <set_spi>
    80000374:	0001                	nop
    80000376:	60a2                	ld	ra,8(sp)
    80000378:	6402                	ld	s0,0(sp)
    8000037a:	0141                	addi	sp,sp,16
    8000037c:	8082                	ret

000000008000037e <spi_tx_rx_start>:
    8000037e:	1141                	addi	sp,sp,-16
    80000380:	e406                	sd	ra,8(sp)
    80000382:	e022                	sd	s0,0(sp)
    80000384:	0800                	addi	s0,sp,16
    80000386:	81018793          	addi	a5,gp,-2032 # 80004fd8 <spi_cr2>
    8000038a:	639c                	ld	a5,0(a5)
    8000038c:	65c1                	lui	a1,0x10
    8000038e:	853e                	mv	a0,a5
    80000390:	f8fff0ef          	jal	ra,8000031e <set_spi>
    80000394:	0001                	nop
    80000396:	60a2                	ld	ra,8(sp)
    80000398:	6402                	ld	s0,0(sp)
    8000039a:	0141                	addi	sp,sp,16
    8000039c:	8082                	ret

000000008000039e <spi_rx_enable>:
    8000039e:	1141                	addi	sp,sp,-16
    800003a0:	e406                	sd	ra,8(sp)
    800003a2:	e022                	sd	s0,0(sp)
    800003a4:	0800                	addi	s0,sp,16
    800003a6:	81018793          	addi	a5,gp,-2032 # 80004fd8 <spi_cr2>
    800003aa:	639c                	ld	a5,0(a5)
    800003ac:	65a1                	lui	a1,0x8
    800003ae:	853e                	mv	a0,a5
    800003b0:	f6fff0ef          	jal	ra,8000031e <set_spi>
    800003b4:	0001                	nop
    800003b6:	60a2                	ld	ra,8(sp)
    800003b8:	6402                	ld	s0,0(sp)
    800003ba:	0141                	addi	sp,sp,16
    800003bc:	8082                	ret

00000000800003be <bitExtracted>:
    800003be:	1101                	addi	sp,sp,-32
    800003c0:	ec22                	sd	s0,24(sp)
    800003c2:	1000                	addi	s0,sp,32
    800003c4:	87aa                	mv	a5,a0
    800003c6:	86ae                	mv	a3,a1
    800003c8:	8732                	mv	a4,a2
    800003ca:	fef42623          	sw	a5,-20(s0)
    800003ce:	87b6                	mv	a5,a3
    800003d0:	fef42423          	sw	a5,-24(s0)
    800003d4:	87ba                	mv	a5,a4
    800003d6:	fef42223          	sw	a5,-28(s0)
    800003da:	fe842783          	lw	a5,-24(s0)
    800003de:	4705                	li	a4,1
    800003e0:	00f717bb          	sllw	a5,a4,a5
    800003e4:	2781                	sext.w	a5,a5
    800003e6:	37fd                	addiw	a5,a5,-1
    800003e8:	0007871b          	sext.w	a4,a5
    800003ec:	fe442783          	lw	a5,-28(s0)
    800003f0:	37fd                	addiw	a5,a5,-1
    800003f2:	2781                	sext.w	a5,a5
    800003f4:	fec42683          	lw	a3,-20(s0)
    800003f8:	40f6d7bb          	sraw	a5,a3,a5
    800003fc:	2781                	sext.w	a5,a5
    800003fe:	8ff9                	and	a5,a5,a4
    80000400:	2781                	sext.w	a5,a5
    80000402:	853e                	mv	a0,a5
    80000404:	6462                	ld	s0,24(sp)
    80000406:	6105                	addi	sp,sp,32
    80000408:	8082                	ret

000000008000040a <spi_rxne_enable>:
    8000040a:	1101                	addi	sp,sp,-32
    8000040c:	ec06                	sd	ra,24(sp)
    8000040e:	e822                	sd	s0,16(sp)
    80000410:	1000                	addi	s0,sp,32
    80000412:	fe042623          	sw	zero,-20(s0)
    80000416:	a831                	j	80000432 <spi_rxne_enable+0x28>
    80000418:	06400513          	li	a0,100
    8000041c:	61a000ef          	jal	ra,80000a36 <waitfor>
    80000420:	81818793          	addi	a5,gp,-2024 # 80004fe0 <spi_sr>
    80000424:	639c                	ld	a5,0(a5)
    80000426:	853e                	mv	a0,a5
    80000428:	f19ff0ef          	jal	ra,80000340 <get_spi>
    8000042c:	87aa                	mv	a5,a0
    8000042e:	fef42623          	sw	a5,-20(s0)
    80000432:	fec42783          	lw	a5,-20(s0)
    80000436:	8b85                	andi	a5,a5,1
    80000438:	2781                	sext.w	a5,a5
    8000043a:	dff9                	beqz	a5,80000418 <spi_rxne_enable+0xe>
    8000043c:	4785                	li	a5,1
    8000043e:	853e                	mv	a0,a5
    80000440:	60e2                	ld	ra,24(sp)
    80000442:	6442                	ld	s0,16(sp)
    80000444:	6105                	addi	sp,sp,32
    80000446:	8082                	ret

0000000080000448 <spi_notbusy>:
    80000448:	1101                	addi	sp,sp,-32
    8000044a:	ec06                	sd	ra,24(sp)
    8000044c:	e822                	sd	s0,16(sp)
    8000044e:	1000                	addi	s0,sp,32
    80000450:	08000793          	li	a5,128
    80000454:	fef42623          	sw	a5,-20(s0)
    80000458:	a829                	j	80000472 <spi_notbusy+0x2a>
    8000045a:	4529                	li	a0,10
    8000045c:	5da000ef          	jal	ra,80000a36 <waitfor>
    80000460:	81818793          	addi	a5,gp,-2024 # 80004fe0 <spi_sr>
    80000464:	639c                	ld	a5,0(a5)
    80000466:	853e                	mv	a0,a5
    80000468:	ed9ff0ef          	jal	ra,80000340 <get_spi>
    8000046c:	87aa                	mv	a5,a0
    8000046e:	fef42623          	sw	a5,-20(s0)
    80000472:	fec42783          	lw	a5,-20(s0)
    80000476:	0807f793          	andi	a5,a5,128
    8000047a:	2781                	sext.w	a5,a5
    8000047c:	fff9                	bnez	a5,8000045a <spi_notbusy+0x12>
    8000047e:	4785                	li	a5,1
    80000480:	853e                	mv	a0,a5
    80000482:	60e2                	ld	ra,24(sp)
    80000484:	6442                	ld	s0,16(sp)
    80000486:	6105                	addi	sp,sp,32
    80000488:	8082                	ret

000000008000048a <flash_write_enable>:
    8000048a:	1141                	addi	sp,sp,-16
    8000048c:	e406                	sd	ra,8(sp)
    8000048e:	e022                	sd	s0,0(sp)
    80000490:	0800                	addi	s0,sp,16
    80000492:	82018793          	addi	a5,gp,-2016 # 80004fe8 <spi_dr1>
    80000496:	639c                	ld	a5,0(a5)
    80000498:	060005b7          	lui	a1,0x6000
    8000049c:	853e                	mv	a0,a5
    8000049e:	e81ff0ef          	jal	ra,8000031e <set_spi>
    800004a2:	84018793          	addi	a5,gp,-1984 # 80005008 <spi_dr5>
    800004a6:	639c                	ld	a5,0(a5)
    800004a8:	4599                	li	a1,6
    800004aa:	853e                	mv	a0,a5
    800004ac:	e73ff0ef          	jal	ra,8000031e <set_spi>
    800004b0:	00005797          	auipc	a5,0x5
    800004b4:	b2078793          	addi	a5,a5,-1248 # 80004fd0 <spi_cr1>
    800004b8:	6398                	ld	a4,0(a5)
    800004ba:	000807b7          	lui	a5,0x80
    800004be:	07b78593          	addi	a1,a5,123 # 8007b <_tbss_end+0x8007b>
    800004c2:	853a                	mv	a0,a4
    800004c4:	e5bff0ef          	jal	ra,8000031e <set_spi>
    800004c8:	f81ff0ef          	jal	ra,80000448 <spi_notbusy>
    800004cc:	4785                	li	a5,1
    800004ce:	853e                	mv	a0,a5
    800004d0:	60a2                	ld	ra,8(sp)
    800004d2:	6402                	ld	s0,0(sp)
    800004d4:	0141                	addi	sp,sp,16
    800004d6:	8082                	ret

00000000800004d8 <flash_clear_sr>:
    800004d8:	1141                	addi	sp,sp,-16
    800004da:	e406                	sd	ra,8(sp)
    800004dc:	e022                	sd	s0,0(sp)
    800004de:	0800                	addi	s0,sp,16
    800004e0:	82018793          	addi	a5,gp,-2016 # 80004fe8 <spi_dr1>
    800004e4:	639c                	ld	a5,0(a5)
    800004e6:	300005b7          	lui	a1,0x30000
    800004ea:	853e                	mv	a0,a5
    800004ec:	e33ff0ef          	jal	ra,8000031e <set_spi>
    800004f0:	84018793          	addi	a5,gp,-1984 # 80005008 <spi_dr5>
    800004f4:	639c                	ld	a5,0(a5)
    800004f6:	03000593          	li	a1,48
    800004fa:	853e                	mv	a0,a5
    800004fc:	e23ff0ef          	jal	ra,8000031e <set_spi>
    80000500:	00005797          	auipc	a5,0x5
    80000504:	ad078793          	addi	a5,a5,-1328 # 80004fd0 <spi_cr1>
    80000508:	6398                	ld	a4,0(a5)
    8000050a:	000807b7          	lui	a5,0x80
    8000050e:	07b78593          	addi	a1,a5,123 # 8007b <_tbss_end+0x8007b>
    80000512:	853a                	mv	a0,a4
    80000514:	e0bff0ef          	jal	ra,8000031e <set_spi>
    80000518:	f31ff0ef          	jal	ra,80000448 <spi_notbusy>
    8000051c:	4785                	li	a5,1
    8000051e:	853e                	mv	a0,a5
    80000520:	60a2                	ld	ra,8(sp)
    80000522:	6402                	ld	s0,0(sp)
    80000524:	0141                	addi	sp,sp,16
    80000526:	8082                	ret

0000000080000528 <flash_cmd_addr>:
    80000528:	7179                	addi	sp,sp,-48
    8000052a:	f406                	sd	ra,40(sp)
    8000052c:	f022                	sd	s0,32(sp)
    8000052e:	1800                	addi	s0,sp,48
    80000530:	87aa                	mv	a5,a0
    80000532:	872e                	mv	a4,a1
    80000534:	fcf42e23          	sw	a5,-36(s0)
    80000538:	87ba                	mv	a5,a4
    8000053a:	fcf42c23          	sw	a5,-40(s0)
    8000053e:	fd842783          	lw	a5,-40(s0)
    80000542:	4625                	li	a2,9
    80000544:	45e1                	li	a1,24
    80000546:	853e                	mv	a0,a5
    80000548:	e77ff0ef          	jal	ra,800003be <bitExtracted>
    8000054c:	87aa                	mv	a5,a0
    8000054e:	fef42623          	sw	a5,-20(s0)
    80000552:	fd842783          	lw	a5,-40(s0)
    80000556:	4605                	li	a2,1
    80000558:	45a1                	li	a1,8
    8000055a:	853e                	mv	a0,a5
    8000055c:	e63ff0ef          	jal	ra,800003be <bitExtracted>
    80000560:	87aa                	mv	a5,a0
    80000562:	fef42423          	sw	a5,-24(s0)
    80000566:	fdc42703          	lw	a4,-36(s0)
    8000056a:	fec42783          	lw	a5,-20(s0)
    8000056e:	8fd9                	or	a5,a5,a4
    80000570:	fef42223          	sw	a5,-28(s0)
    80000574:	fe842783          	lw	a5,-24(s0)
    80000578:	0187979b          	slliw	a5,a5,0x18
    8000057c:	fef42423          	sw	a5,-24(s0)
    80000580:	82018793          	addi	a5,gp,-2016 # 80004fe8 <spi_dr1>
    80000584:	639c                	ld	a5,0(a5)
    80000586:	fe442703          	lw	a4,-28(s0)
    8000058a:	85ba                	mv	a1,a4
    8000058c:	853e                	mv	a0,a5
    8000058e:	d91ff0ef          	jal	ra,8000031e <set_spi>
    80000592:	82818793          	addi	a5,gp,-2008 # 80004ff0 <spi_dr2>
    80000596:	639c                	ld	a5,0(a5)
    80000598:	fe842703          	lw	a4,-24(s0)
    8000059c:	85ba                	mv	a1,a4
    8000059e:	853e                	mv	a0,a5
    800005a0:	d7fff0ef          	jal	ra,8000031e <set_spi>
    800005a4:	84018793          	addi	a5,gp,-1984 # 80005008 <spi_dr5>
    800005a8:	639c                	ld	a5,0(a5)
    800005aa:	4581                	li	a1,0
    800005ac:	853e                	mv	a0,a5
    800005ae:	d71ff0ef          	jal	ra,8000031e <set_spi>
    800005b2:	00005797          	auipc	a5,0x5
    800005b6:	a1e78793          	addi	a5,a5,-1506 # 80004fd0 <spi_cr1>
    800005ba:	6398                	ld	a4,0(a5)
    800005bc:	002807b7          	lui	a5,0x280
    800005c0:	07b78593          	addi	a1,a5,123 # 28007b <_tbss_end+0x28007b>
    800005c4:	853a                	mv	a0,a4
    800005c6:	d59ff0ef          	jal	ra,8000031e <set_spi>
    800005ca:	4551                	li	a0,20
    800005cc:	46a000ef          	jal	ra,80000a36 <waitfor>
    800005d0:	e79ff0ef          	jal	ra,80000448 <spi_notbusy>
    800005d4:	4785                	li	a5,1
    800005d6:	853e                	mv	a0,a5
    800005d8:	70a2                	ld	ra,40(sp)
    800005da:	7402                	ld	s0,32(sp)
    800005dc:	6145                	addi	sp,sp,48
    800005de:	8082                	ret

00000000800005e0 <flash_cmd_addr_data>:
    800005e0:	7179                	addi	sp,sp,-48
    800005e2:	f406                	sd	ra,40(sp)
    800005e4:	f022                	sd	s0,32(sp)
    800005e6:	1800                	addi	s0,sp,48
    800005e8:	87aa                	mv	a5,a0
    800005ea:	86ae                	mv	a3,a1
    800005ec:	8732                	mv	a4,a2
    800005ee:	fcf42e23          	sw	a5,-36(s0)
    800005f2:	87b6                	mv	a5,a3
    800005f4:	fcf42c23          	sw	a5,-40(s0)
    800005f8:	87ba                	mv	a5,a4
    800005fa:	fcf42a23          	sw	a5,-44(s0)
    800005fe:	fd842783          	lw	a5,-40(s0)
    80000602:	0087d79b          	srliw	a5,a5,0x8
    80000606:	0007871b          	sext.w	a4,a5
    8000060a:	fdc42783          	lw	a5,-36(s0)
    8000060e:	8fd9                	or	a5,a5,a4
    80000610:	2781                	sext.w	a5,a5
    80000612:	fef42623          	sw	a5,-20(s0)
    80000616:	fd842783          	lw	a5,-40(s0)
    8000061a:	0187979b          	slliw	a5,a5,0x18
    8000061e:	2781                	sext.w	a5,a5
    80000620:	0007871b          	sext.w	a4,a5
    80000624:	fd442783          	lw	a5,-44(s0)
    80000628:	0087d79b          	srliw	a5,a5,0x8
    8000062c:	2781                	sext.w	a5,a5
    8000062e:	8fd9                	or	a5,a5,a4
    80000630:	2781                	sext.w	a5,a5
    80000632:	fef42423          	sw	a5,-24(s0)
    80000636:	fd442783          	lw	a5,-44(s0)
    8000063a:	0187979b          	slliw	a5,a5,0x18
    8000063e:	fef42223          	sw	a5,-28(s0)
    80000642:	fe442683          	lw	a3,-28(s0)
    80000646:	fe842703          	lw	a4,-24(s0)
    8000064a:	fec42783          	lw	a5,-20(s0)
    8000064e:	863a                	mv	a2,a4
    80000650:	85be                	mv	a1,a5
    80000652:	00004517          	auipc	a0,0x4
    80000656:	9b650513          	addi	a0,a0,-1610 # 80004008 <__rodata_start+0x68>
    8000065a:	243000ef          	jal	ra,8000109c <log_debug>
    8000065e:	82018793          	addi	a5,gp,-2016 # 80004fe8 <spi_dr1>
    80000662:	639c                	ld	a5,0(a5)
    80000664:	fec42703          	lw	a4,-20(s0)
    80000668:	85ba                	mv	a1,a4
    8000066a:	853e                	mv	a0,a5
    8000066c:	cb3ff0ef          	jal	ra,8000031e <set_spi>
    80000670:	82818793          	addi	a5,gp,-2008 # 80004ff0 <spi_dr2>
    80000674:	639c                	ld	a5,0(a5)
    80000676:	fe842703          	lw	a4,-24(s0)
    8000067a:	85ba                	mv	a1,a4
    8000067c:	853e                	mv	a0,a5
    8000067e:	ca1ff0ef          	jal	ra,8000031e <set_spi>
    80000682:	83018793          	addi	a5,gp,-2000 # 80004ff8 <spi_dr3>
    80000686:	639c                	ld	a5,0(a5)
    80000688:	fe442703          	lw	a4,-28(s0)
    8000068c:	85ba                	mv	a1,a4
    8000068e:	853e                	mv	a0,a5
    80000690:	c8fff0ef          	jal	ra,8000031e <set_spi>
    80000694:	84018793          	addi	a5,gp,-1984 # 80005008 <spi_dr5>
    80000698:	639c                	ld	a5,0(a5)
    8000069a:	4581                	li	a1,0
    8000069c:	853e                	mv	a0,a5
    8000069e:	c81ff0ef          	jal	ra,8000031e <set_spi>
    800006a2:	00005797          	auipc	a5,0x5
    800006a6:	92e78793          	addi	a5,a5,-1746 # 80004fd0 <spi_cr1>
    800006aa:	6398                	ld	a4,0(a5)
    800006ac:	004807b7          	lui	a5,0x480
    800006b0:	07b78593          	addi	a1,a5,123 # 48007b <_tbss_end+0x48007b>
    800006b4:	853a                	mv	a0,a4
    800006b6:	c69ff0ef          	jal	ra,8000031e <set_spi>
    800006ba:	4551                	li	a0,20
    800006bc:	37a000ef          	jal	ra,80000a36 <waitfor>
    800006c0:	d89ff0ef          	jal	ra,80000448 <spi_notbusy>
    800006c4:	1d6000ef          	jal	ra,8000089a <flash_status_register_read>
    800006c8:	0001                	nop
    800006ca:	70a2                	ld	ra,40(sp)
    800006cc:	7402                	ld	s0,32(sp)
    800006ce:	6145                	addi	sp,sp,48
    800006d0:	8082                	ret

00000000800006d2 <flash_write>:
    800006d2:	1101                	addi	sp,sp,-32
    800006d4:	ec06                	sd	ra,24(sp)
    800006d6:	e822                	sd	s0,16(sp)
    800006d8:	1000                	addi	s0,sp,32
    800006da:	87aa                	mv	a5,a0
    800006dc:	872e                	mv	a4,a1
    800006de:	fef42623          	sw	a5,-20(s0)
    800006e2:	87ba                	mv	a5,a4
    800006e4:	fef42423          	sw	a5,-24(s0)
    800006e8:	da3ff0ef          	jal	ra,8000048a <flash_write_enable>
    800006ec:	fe842703          	lw	a4,-24(s0)
    800006f0:	fec42783          	lw	a5,-20(s0)
    800006f4:	863a                	mv	a2,a4
    800006f6:	85be                	mv	a1,a5
    800006f8:	12000537          	lui	a0,0x12000
    800006fc:	ee5ff0ef          	jal	ra,800005e0 <flash_cmd_addr_data>
    80000700:	19a000ef          	jal	ra,8000089a <flash_status_register_read>
    80000704:	0001                	nop
    80000706:	60e2                	ld	ra,24(sp)
    80000708:	6442                	ld	s0,16(sp)
    8000070a:	6105                	addi	sp,sp,32
    8000070c:	8082                	ret

000000008000070e <flash_cmd_to_read>:
    8000070e:	7179                	addi	sp,sp,-48
    80000710:	f406                	sd	ra,40(sp)
    80000712:	f022                	sd	s0,32(sp)
    80000714:	1800                	addi	s0,sp,48
    80000716:	87aa                	mv	a5,a0
    80000718:	872e                	mv	a4,a1
    8000071a:	fcf42e23          	sw	a5,-36(s0)
    8000071e:	87ba                	mv	a5,a4
    80000720:	fcf42c23          	sw	a5,-40(s0)
    80000724:	fd842783          	lw	a5,-40(s0)
    80000728:	4605                	li	a2,1
    8000072a:	45a1                	li	a1,8
    8000072c:	853e                	mv	a0,a5
    8000072e:	c91ff0ef          	jal	ra,800003be <bitExtracted>
    80000732:	87aa                	mv	a5,a0
    80000734:	fef42423          	sw	a5,-24(s0)
    80000738:	fe842783          	lw	a5,-24(s0)
    8000073c:	0187979b          	slliw	a5,a5,0x18
    80000740:	fef42423          	sw	a5,-24(s0)
    80000744:	82018793          	addi	a5,gp,-2016 # 80004fe8 <spi_dr1>
    80000748:	6398                	ld	a4,0(a5)
    8000074a:	fd842783          	lw	a5,-40(s0)
    8000074e:	0087d79b          	srliw	a5,a5,0x8
    80000752:	0007869b          	sext.w	a3,a5
    80000756:	fdc42783          	lw	a5,-36(s0)
    8000075a:	8fd5                	or	a5,a5,a3
    8000075c:	2781                	sext.w	a5,a5
    8000075e:	2781                	sext.w	a5,a5
    80000760:	85be                	mv	a1,a5
    80000762:	853a                	mv	a0,a4
    80000764:	bbbff0ef          	jal	ra,8000031e <set_spi>
    80000768:	82818793          	addi	a5,gp,-2008 # 80004ff0 <spi_dr2>
    8000076c:	6398                	ld	a4,0(a5)
    8000076e:	fd842783          	lw	a5,-40(s0)
    80000772:	0187979b          	slliw	a5,a5,0x18
    80000776:	2781                	sext.w	a5,a5
    80000778:	85be                	mv	a1,a5
    8000077a:	853a                	mv	a0,a4
    8000077c:	ba3ff0ef          	jal	ra,8000031e <set_spi>
    80000780:	84018793          	addi	a5,gp,-1984 # 80005008 <spi_dr5>
    80000784:	639c                	ld	a5,0(a5)
    80000786:	4581                	li	a1,0
    80000788:	853e                	mv	a0,a5
    8000078a:	b95ff0ef          	jal	ra,8000031e <set_spi>
    8000078e:	bf1ff0ef          	jal	ra,8000037e <spi_tx_rx_start>
    80000792:	00005797          	auipc	a5,0x5
    80000796:	83e78793          	addi	a5,a5,-1986 # 80004fd0 <spi_cr1>
    8000079a:	6398                	ld	a4,0(a5)
    8000079c:	203007b7          	lui	a5,0x20300
    800007a0:	07b78593          	addi	a1,a5,123 # 2030007b <_free_space+0x18314da3>
    800007a4:	853a                	mv	a0,a4
    800007a6:	b79ff0ef          	jal	ra,8000031e <set_spi>
    800007aa:	7d000513          	li	a0,2000
    800007ae:	288000ef          	jal	ra,80000a36 <waitfor>
    800007b2:	c59ff0ef          	jal	ra,8000040a <spi_rxne_enable>
    800007b6:	87aa                	mv	a5,a0
    800007b8:	c799                	beqz	a5,800007c6 <flash_cmd_to_read+0xb8>
    800007ba:	84018793          	addi	a5,gp,-1984 # 80005008 <spi_dr5>
    800007be:	639c                	ld	a5,0(a5)
    800007c0:	439c                	lw	a5,0(a5)
    800007c2:	fef42623          	sw	a5,-20(s0)
    800007c6:	fec42783          	lw	a5,-20(s0)
    800007ca:	853e                	mv	a0,a5
    800007cc:	70a2                	ld	ra,40(sp)
    800007ce:	7402                	ld	s0,32(sp)
    800007d0:	6145                	addi	sp,sp,48
    800007d2:	8082                	ret

00000000800007d4 <flash_read>:
    800007d4:	7179                	addi	sp,sp,-48
    800007d6:	f406                	sd	ra,40(sp)
    800007d8:	f022                	sd	s0,32(sp)
    800007da:	1800                	addi	s0,sp,48
    800007dc:	87aa                	mv	a5,a0
    800007de:	fcf42e23          	sw	a5,-36(s0)
    800007e2:	fdc42783          	lw	a5,-36(s0)
    800007e6:	85be                	mv	a1,a5
    800007e8:	0c000537          	lui	a0,0xc000
    800007ec:	f23ff0ef          	jal	ra,8000070e <flash_cmd_to_read>
    800007f0:	87aa                	mv	a5,a0
    800007f2:	fef42623          	sw	a5,-20(s0)
    800007f6:	fec42783          	lw	a5,-20(s0)
    800007fa:	853e                	mv	a0,a5
    800007fc:	70a2                	ld	ra,40(sp)
    800007fe:	7402                	ld	s0,32(sp)
    80000800:	6145                	addi	sp,sp,48
    80000802:	8082                	ret

0000000080000804 <flash_cmd_read>:
    80000804:	7179                	addi	sp,sp,-48
    80000806:	f406                	sd	ra,40(sp)
    80000808:	f022                	sd	s0,32(sp)
    8000080a:	1800                	addi	s0,sp,48
    8000080c:	87aa                	mv	a5,a0
    8000080e:	fcf42e23          	sw	a5,-36(s0)
    80000812:	82018793          	addi	a5,gp,-2016 # 80004fe8 <spi_dr1>
    80000816:	639c                	ld	a5,0(a5)
    80000818:	fdc42703          	lw	a4,-36(s0)
    8000081c:	85ba                	mv	a1,a4
    8000081e:	853e                	mv	a0,a5
    80000820:	affff0ef          	jal	ra,8000031e <set_spi>
    80000824:	84018793          	addi	a5,gp,-1984 # 80005008 <spi_dr5>
    80000828:	639c                	ld	a5,0(a5)
    8000082a:	fdc42703          	lw	a4,-36(s0)
    8000082e:	85ba                	mv	a1,a4
    80000830:	853e                	mv	a0,a5
    80000832:	aedff0ef          	jal	ra,8000031e <set_spi>
    80000836:	b49ff0ef          	jal	ra,8000037e <spi_tx_rx_start>
    8000083a:	00004797          	auipc	a5,0x4
    8000083e:	79678793          	addi	a5,a5,1942 # 80004fd0 <spi_cr1>
    80000842:	6398                	ld	a4,0(a5)
    80000844:	200807b7          	lui	a5,0x20080
    80000848:	07b78593          	addi	a1,a5,123 # 2008007b <_free_space+0x18094da3>
    8000084c:	853a                	mv	a0,a4
    8000084e:	ad1ff0ef          	jal	ra,8000031e <set_spi>
    80000852:	bb9ff0ef          	jal	ra,8000040a <spi_rxne_enable>
    80000856:	87aa                	mv	a5,a0
    80000858:	c799                	beqz	a5,80000866 <flash_cmd_read+0x62>
    8000085a:	84018793          	addi	a5,gp,-1984 # 80005008 <spi_dr5>
    8000085e:	639c                	ld	a5,0(a5)
    80000860:	439c                	lw	a5,0(a5)
    80000862:	fef42623          	sw	a5,-20(s0)
    80000866:	fec42783          	lw	a5,-20(s0)
    8000086a:	853e                	mv	a0,a5
    8000086c:	70a2                	ld	ra,40(sp)
    8000086e:	7402                	ld	s0,32(sp)
    80000870:	6145                	addi	sp,sp,48
    80000872:	8082                	ret

0000000080000874 <flash_erase>:
    80000874:	1101                	addi	sp,sp,-32
    80000876:	ec06                	sd	ra,24(sp)
    80000878:	e822                	sd	s0,16(sp)
    8000087a:	1000                	addi	s0,sp,32
    8000087c:	87aa                	mv	a5,a0
    8000087e:	fef42623          	sw	a5,-20(s0)
    80000882:	fec42783          	lw	a5,-20(s0)
    80000886:	85be                	mv	a1,a5
    80000888:	dc000537          	lui	a0,0xdc000
    8000088c:	c9dff0ef          	jal	ra,80000528 <flash_cmd_addr>
    80000890:	0001                	nop
    80000892:	60e2                	ld	ra,24(sp)
    80000894:	6442                	ld	s0,16(sp)
    80000896:	6105                	addi	sp,sp,32
    80000898:	8082                	ret

000000008000089a <flash_status_register_read>:
    8000089a:	1101                	addi	sp,sp,-32
    8000089c:	ec06                	sd	ra,24(sp)
    8000089e:	e822                	sd	s0,16(sp)
    800008a0:	1000                	addi	s0,sp,32
    800008a2:	478d                	li	a5,3
    800008a4:	fef42623          	sw	a5,-20(s0)
    800008a8:	a00d                	j	800008ca <flash_status_register_read+0x30>
    800008aa:	05000537          	lui	a0,0x5000
    800008ae:	f57ff0ef          	jal	ra,80000804 <flash_cmd_read>
    800008b2:	87aa                	mv	a5,a0
    800008b4:	fef42623          	sw	a5,-20(s0)
    800008b8:	fec42783          	lw	a5,-20(s0)
    800008bc:	85be                	mv	a1,a5
    800008be:	00003517          	auipc	a0,0x3
    800008c2:	76a50513          	addi	a0,a0,1898 # 80004028 <__rodata_start+0x88>
    800008c6:	7d6000ef          	jal	ra,8000109c <log_debug>
    800008ca:	fec42783          	lw	a5,-20(s0)
    800008ce:	8b8d                	andi	a5,a5,3
    800008d0:	2781                	sext.w	a5,a5
    800008d2:	ffe1                	bnez	a5,800008aa <flash_status_register_read+0x10>
    800008d4:	4781                	li	a5,0
    800008d6:	853e                	mv	a0,a5
    800008d8:	60e2                	ld	ra,24(sp)
    800008da:	6442                	ld	s0,16(sp)
    800008dc:	6105                	addi	sp,sp,32
    800008de:	8082                	ret

00000000800008e0 <flash_device_id>:
    800008e0:	1101                	addi	sp,sp,-32
    800008e2:	ec06                	sd	ra,24(sp)
    800008e4:	e822                	sd	s0,16(sp)
    800008e6:	1000                	addi	s0,sp,32
    800008e8:	ba3ff0ef          	jal	ra,8000048a <flash_write_enable>
    800008ec:	82018793          	addi	a5,gp,-2016 # 80004fe8 <spi_dr1>
    800008f0:	639c                	ld	a5,0(a5)
    800008f2:	9f0005b7          	lui	a1,0x9f000
    800008f6:	853e                	mv	a0,a5
    800008f8:	a27ff0ef          	jal	ra,8000031e <set_spi>
    800008fc:	84018793          	addi	a5,gp,-1984 # 80005008 <spi_dr5>
    80000900:	639c                	ld	a5,0(a5)
    80000902:	9f0005b7          	lui	a1,0x9f000
    80000906:	853e                	mv	a0,a5
    80000908:	a17ff0ef          	jal	ra,8000031e <set_spi>
    8000090c:	a73ff0ef          	jal	ra,8000037e <spi_tx_rx_start>
    80000910:	00004797          	auipc	a5,0x4
    80000914:	6c078793          	addi	a5,a5,1728 # 80004fd0 <spi_cr1>
    80000918:	6398                	ld	a4,0(a5)
    8000091a:	180807b7          	lui	a5,0x18080
    8000091e:	07b78593          	addi	a1,a5,123 # 1808007b <_free_space+0x10094da3>
    80000922:	853a                	mv	a0,a4
    80000924:	9fbff0ef          	jal	ra,8000031e <set_spi>
    80000928:	ae3ff0ef          	jal	ra,8000040a <spi_rxne_enable>
    8000092c:	87aa                	mv	a5,a0
    8000092e:	c799                	beqz	a5,8000093c <flash_device_id+0x5c>
    80000930:	84018793          	addi	a5,gp,-1984 # 80005008 <spi_dr5>
    80000934:	639c                	ld	a5,0(a5)
    80000936:	439c                	lw	a5,0(a5)
    80000938:	fef42623          	sw	a5,-20(s0)
    8000093c:	fec42783          	lw	a5,-20(s0)
    80000940:	4645                	li	a2,17
    80000942:	45a1                	li	a1,8
    80000944:	853e                	mv	a0,a5
    80000946:	a79ff0ef          	jal	ra,800003be <bitExtracted>
    8000094a:	87aa                	mv	a5,a0
    8000094c:	fef42423          	sw	a5,-24(s0)
    80000950:	fec42783          	lw	a5,-20(s0)
    80000954:	4605                	li	a2,1
    80000956:	45c1                	li	a1,16
    80000958:	853e                	mv	a0,a5
    8000095a:	a65ff0ef          	jal	ra,800003be <bitExtracted>
    8000095e:	87aa                	mv	a5,a0
    80000960:	fef42223          	sw	a5,-28(s0)
    80000964:	fe842783          	lw	a5,-24(s0)
    80000968:	85be                	mv	a1,a5
    8000096a:	00003517          	auipc	a0,0x3
    8000096e:	6de50513          	addi	a0,a0,1758 # 80004048 <__rodata_start+0xa8>
    80000972:	72a000ef          	jal	ra,8000109c <log_debug>
    80000976:	fe442783          	lw	a5,-28(s0)
    8000097a:	85be                	mv	a1,a5
    8000097c:	00003517          	auipc	a0,0x3
    80000980:	6dc50513          	addi	a0,a0,1756 # 80004058 <__rodata_start+0xb8>
    80000984:	718000ef          	jal	ra,8000109c <log_debug>
    80000988:	4785                	li	a5,1
    8000098a:	853e                	mv	a0,a5
    8000098c:	60e2                	ld	ra,24(sp)
    8000098e:	6442                	ld	s0,16(sp)
    80000990:	6105                	addi	sp,sp,32
    80000992:	8082                	ret
    80000994:	0000                	unimp
	...

0000000080000998 <trap_entry>:
    80000998:	7111                	addi	sp,sp,-256
    8000099a:	0001                	nop
    8000099c:	00000013          	nop
    800009a0:	e406                	sd	ra,8(sp)
    800009a2:	e80a                	sd	sp,16(sp)
    800009a4:	ec0e                	sd	gp,24(sp)
    800009a6:	f012                	sd	tp,32(sp)
    800009a8:	f416                	sd	t0,40(sp)
    800009aa:	f81a                	sd	t1,48(sp)
    800009ac:	fc1e                	sd	t2,56(sp)
    800009ae:	e0a2                	sd	s0,64(sp)
    800009b0:	e4a6                	sd	s1,72(sp)
    800009b2:	e8aa                	sd	a0,80(sp)
    800009b4:	ecae                	sd	a1,88(sp)
    800009b6:	f0b2                	sd	a2,96(sp)
    800009b8:	f4b6                	sd	a3,104(sp)
    800009ba:	f8ba                	sd	a4,112(sp)
    800009bc:	fcbe                	sd	a5,120(sp)
    800009be:	e142                	sd	a6,128(sp)
    800009c0:	e546                	sd	a7,136(sp)
    800009c2:	e94a                	sd	s2,144(sp)
    800009c4:	ed4e                	sd	s3,152(sp)
    800009c6:	f152                	sd	s4,160(sp)
    800009c8:	f556                	sd	s5,168(sp)
    800009ca:	f95a                	sd	s6,176(sp)
    800009cc:	fd5e                	sd	s7,184(sp)
    800009ce:	e1e2                	sd	s8,192(sp)
    800009d0:	e5e6                	sd	s9,200(sp)
    800009d2:	e9ea                	sd	s10,208(sp)
    800009d4:	edee                	sd	s11,216(sp)
    800009d6:	f1f2                	sd	t3,224(sp)
    800009d8:	f5f6                	sd	t4,232(sp)
    800009da:	f9fa                	sd	t5,240(sp)
    800009dc:	fdfe                	sd	t6,248(sp)
    800009de:	34202573          	csrr	a0,mcause
    800009e2:	341025f3          	csrr	a1,mepc
    800009e6:	860a                	mv	a2,sp
    800009e8:	568000ef          	jal	ra,80000f50 <handle_trap>
    800009ec:	34151073          	csrw	mepc,a0
    800009f0:	60a2                	ld	ra,8(sp)
    800009f2:	6142                	ld	sp,16(sp)
    800009f4:	61e2                	ld	gp,24(sp)
    800009f6:	7202                	ld	tp,32(sp)
    800009f8:	72a2                	ld	t0,40(sp)
    800009fa:	7342                	ld	t1,48(sp)
    800009fc:	73e2                	ld	t2,56(sp)
    800009fe:	6406                	ld	s0,64(sp)
    80000a00:	64a6                	ld	s1,72(sp)
    80000a02:	6546                	ld	a0,80(sp)
    80000a04:	65e6                	ld	a1,88(sp)
    80000a06:	7606                	ld	a2,96(sp)
    80000a08:	76a6                	ld	a3,104(sp)
    80000a0a:	7746                	ld	a4,112(sp)
    80000a0c:	77e6                	ld	a5,120(sp)
    80000a0e:	680a                	ld	a6,128(sp)
    80000a10:	68aa                	ld	a7,136(sp)
    80000a12:	694a                	ld	s2,144(sp)
    80000a14:	69ea                	ld	s3,152(sp)
    80000a16:	7a0a                	ld	s4,160(sp)
    80000a18:	7aaa                	ld	s5,168(sp)
    80000a1a:	7b4a                	ld	s6,176(sp)
    80000a1c:	7bea                	ld	s7,184(sp)
    80000a1e:	6c0e                	ld	s8,192(sp)
    80000a20:	6cae                	ld	s9,200(sp)
    80000a22:	6d4e                	ld	s10,208(sp)
    80000a24:	6dee                	ld	s11,216(sp)
    80000a26:	7e0e                	ld	t3,224(sp)
    80000a28:	7eae                	ld	t4,232(sp)
    80000a2a:	7f4e                	ld	t5,240(sp)
    80000a2c:	7fee                	ld	t6,248(sp)
    80000a2e:	6111                	addi	sp,sp,256
    80000a30:	30200073          	mret
	...

0000000080000a36 <waitfor>:
    80000a36:	7179                	addi	sp,sp,-48
    80000a38:	f422                	sd	s0,40(sp)
    80000a3a:	1800                	addi	s0,sp,48
    80000a3c:	87aa                	mv	a5,a0
    80000a3e:	fcf42e23          	sw	a5,-36(s0)
    80000a42:	fe042623          	sw	zero,-20(s0)
    80000a46:	0001                	nop
    80000a48:	fec42783          	lw	a5,-20(s0)
    80000a4c:	0017871b          	addiw	a4,a5,1
    80000a50:	fee42623          	sw	a4,-20(s0)
    80000a54:	fdc42703          	lw	a4,-36(s0)
    80000a58:	2701                	sext.w	a4,a4
    80000a5a:	fee7e7e3          	bltu	a5,a4,80000a48 <waitfor+0x12>
    80000a5e:	0001                	nop
    80000a60:	0001                	nop
    80000a62:	7422                	ld	s0,40(sp)
    80000a64:	6145                	addi	sp,sp,48
    80000a66:	8082                	ret

0000000080000a68 <delay>:
    80000a68:	7179                	addi	sp,sp,-48
    80000a6a:	f422                	sd	s0,40(sp)
    80000a6c:	1800                	addi	s0,sp,48
    80000a6e:	fca43c23          	sd	a0,-40(s0)
    80000a72:	fd843703          	ld	a4,-40(s0)
    80000a76:	3e800793          	li	a5,1000
    80000a7a:	02f707b3          	mul	a5,a4,a5
    80000a7e:	fef43423          	sd	a5,-24(s0)
    80000a82:	a829                	j	80000a9c <delay+0x34>
    80000a84:	3e800793          	li	a5,1000
    80000a88:	fef43023          	sd	a5,-32(s0)
    80000a8c:	0001                	nop
    80000a8e:	fe043783          	ld	a5,-32(s0)
    80000a92:	fff78713          	addi	a4,a5,-1
    80000a96:	fee43023          	sd	a4,-32(s0)
    80000a9a:	fbf5                	bnez	a5,80000a8e <delay+0x26>
    80000a9c:	fe843783          	ld	a5,-24(s0)
    80000aa0:	fff78713          	addi	a4,a5,-1
    80000aa4:	fee43423          	sd	a4,-24(s0)
    80000aa8:	fff1                	bnez	a5,80000a84 <delay+0x1c>
    80000aaa:	0001                	nop
    80000aac:	0001                	nop
    80000aae:	7422                	ld	s0,40(sp)
    80000ab0:	6145                	addi	sp,sp,48
    80000ab2:	8082                	ret

0000000080000ab4 <pow_10>:
    80000ab4:	7179                	addi	sp,sp,-48
    80000ab6:	f406                	sd	ra,40(sp)
    80000ab8:	f022                	sd	s0,32(sp)
    80000aba:	1800                	addi	s0,sp,48
    80000abc:	87aa                	mv	a5,a0
    80000abe:	fcf42e23          	sw	a5,-36(s0)
    80000ac2:	4785                	li	a5,1
    80000ac4:	fef42623          	sw	a5,-20(s0)
    80000ac8:	fe042423          	sw	zero,-24(s0)
    80000acc:	a005                	j	80000aec <pow_10+0x38>
    80000ace:	fec42703          	lw	a4,-20(s0)
    80000ad2:	87ba                	mv	a5,a4
    80000ad4:	0027979b          	slliw	a5,a5,0x2
    80000ad8:	9fb9                	addw	a5,a5,a4
    80000ada:	0017979b          	slliw	a5,a5,0x1
    80000ade:	fef42623          	sw	a5,-20(s0)
    80000ae2:	fe842783          	lw	a5,-24(s0)
    80000ae6:	2785                	addiw	a5,a5,1
    80000ae8:	fef42423          	sw	a5,-24(s0)
    80000aec:	fe842703          	lw	a4,-24(s0)
    80000af0:	fdc42783          	lw	a5,-36(s0)
    80000af4:	2701                	sext.w	a4,a4
    80000af6:	2781                	sext.w	a5,a5
    80000af8:	fcf76be3          	bltu	a4,a5,80000ace <pow_10+0x1a>
    80000afc:	fec42783          	lw	a5,-20(s0)
    80000b00:	853e                	mv	a0,a5
    80000b02:	1d0030ef          	jal	ra,80003cd2 <__floatunsisf>
    80000b06:	87aa                	mv	a5,a0
    80000b08:	853e                	mv	a0,a5
    80000b0a:	70a2                	ld	ra,40(sp)
    80000b0c:	7402                	ld	s0,32(sp)
    80000b0e:	6145                	addi	sp,sp,48
    80000b10:	8082                	ret

0000000080000b12 <reverse>:
    80000b12:	7179                	addi	sp,sp,-48
    80000b14:	f422                	sd	s0,40(sp)
    80000b16:	1800                	addi	s0,sp,48
    80000b18:	fca43c23          	sd	a0,-40(s0)
    80000b1c:	87ae                	mv	a5,a1
    80000b1e:	fcf42a23          	sw	a5,-44(s0)
    80000b22:	fe042623          	sw	zero,-20(s0)
    80000b26:	fd442783          	lw	a5,-44(s0)
    80000b2a:	37fd                	addiw	a5,a5,-1
    80000b2c:	fef42423          	sw	a5,-24(s0)
    80000b30:	a899                	j	80000b86 <reverse+0x74>
    80000b32:	fec42783          	lw	a5,-20(s0)
    80000b36:	fd843703          	ld	a4,-40(s0)
    80000b3a:	97ba                	add	a5,a5,a4
    80000b3c:	0007c783          	lbu	a5,0(a5)
    80000b40:	fef403a3          	sb	a5,-25(s0)
    80000b44:	fe842783          	lw	a5,-24(s0)
    80000b48:	fd843703          	ld	a4,-40(s0)
    80000b4c:	973e                	add	a4,a4,a5
    80000b4e:	fec42783          	lw	a5,-20(s0)
    80000b52:	fd843683          	ld	a3,-40(s0)
    80000b56:	97b6                	add	a5,a5,a3
    80000b58:	00074703          	lbu	a4,0(a4)
    80000b5c:	00e78023          	sb	a4,0(a5)
    80000b60:	fe842783          	lw	a5,-24(s0)
    80000b64:	fd843703          	ld	a4,-40(s0)
    80000b68:	97ba                	add	a5,a5,a4
    80000b6a:	fe744703          	lbu	a4,-25(s0)
    80000b6e:	00e78023          	sb	a4,0(a5)
    80000b72:	fec42783          	lw	a5,-20(s0)
    80000b76:	2785                	addiw	a5,a5,1
    80000b78:	fef42623          	sw	a5,-20(s0)
    80000b7c:	fe842783          	lw	a5,-24(s0)
    80000b80:	37fd                	addiw	a5,a5,-1
    80000b82:	fef42423          	sw	a5,-24(s0)
    80000b86:	fec42703          	lw	a4,-20(s0)
    80000b8a:	fe842783          	lw	a5,-24(s0)
    80000b8e:	2701                	sext.w	a4,a4
    80000b90:	2781                	sext.w	a5,a5
    80000b92:	faf740e3          	blt	a4,a5,80000b32 <reverse+0x20>
    80000b96:	0001                	nop
    80000b98:	0001                	nop
    80000b9a:	7422                	ld	s0,40(sp)
    80000b9c:	6145                	addi	sp,sp,48
    80000b9e:	8082                	ret

0000000080000ba0 <int_to_string>:
    80000ba0:	7179                	addi	sp,sp,-48
    80000ba2:	f406                	sd	ra,40(sp)
    80000ba4:	f022                	sd	s0,32(sp)
    80000ba6:	1800                	addi	s0,sp,48
    80000ba8:	87aa                	mv	a5,a0
    80000baa:	fcb43823          	sd	a1,-48(s0)
    80000bae:	8732                	mv	a4,a2
    80000bb0:	fcf42e23          	sw	a5,-36(s0)
    80000bb4:	87ba                	mv	a5,a4
    80000bb6:	fcf42c23          	sw	a5,-40(s0)
    80000bba:	fe042623          	sw	zero,-20(s0)
    80000bbe:	a081                	j	80000bfe <int_to_string+0x5e>
    80000bc0:	fdc42703          	lw	a4,-36(s0)
    80000bc4:	47a9                	li	a5,10
    80000bc6:	02f767bb          	remw	a5,a4,a5
    80000bca:	2781                	sext.w	a5,a5
    80000bcc:	0ff7f713          	andi	a4,a5,255
    80000bd0:	fec46783          	lwu	a5,-20(s0)
    80000bd4:	fd043683          	ld	a3,-48(s0)
    80000bd8:	97b6                	add	a5,a5,a3
    80000bda:	0307071b          	addiw	a4,a4,48
    80000bde:	0ff77713          	andi	a4,a4,255
    80000be2:	00e78023          	sb	a4,0(a5)
    80000be6:	fec42783          	lw	a5,-20(s0)
    80000bea:	2785                	addiw	a5,a5,1
    80000bec:	fef42623          	sw	a5,-20(s0)
    80000bf0:	fdc42703          	lw	a4,-36(s0)
    80000bf4:	47a9                	li	a5,10
    80000bf6:	02f747bb          	divw	a5,a4,a5
    80000bfa:	fcf42e23          	sw	a5,-36(s0)
    80000bfe:	fdc42783          	lw	a5,-36(s0)
    80000c02:	2781                	sext.w	a5,a5
    80000c04:	ffd5                	bnez	a5,80000bc0 <int_to_string+0x20>
    80000c06:	a839                	j	80000c24 <int_to_string+0x84>
    80000c08:	fec46783          	lwu	a5,-20(s0)
    80000c0c:	fd043703          	ld	a4,-48(s0)
    80000c10:	97ba                	add	a5,a5,a4
    80000c12:	03000713          	li	a4,48
    80000c16:	00e78023          	sb	a4,0(a5)
    80000c1a:	fec42783          	lw	a5,-20(s0)
    80000c1e:	2785                	addiw	a5,a5,1
    80000c20:	fef42623          	sw	a5,-20(s0)
    80000c24:	fec42703          	lw	a4,-20(s0)
    80000c28:	fd842783          	lw	a5,-40(s0)
    80000c2c:	2701                	sext.w	a4,a4
    80000c2e:	2781                	sext.w	a5,a5
    80000c30:	fcf76ce3          	bltu	a4,a5,80000c08 <int_to_string+0x68>
    80000c34:	fec42783          	lw	a5,-20(s0)
    80000c38:	85be                	mv	a1,a5
    80000c3a:	fd043503          	ld	a0,-48(s0)
    80000c3e:	ed5ff0ef          	jal	ra,80000b12 <reverse>
    80000c42:	fec46783          	lwu	a5,-20(s0)
    80000c46:	fd043703          	ld	a4,-48(s0)
    80000c4a:	97ba                	add	a5,a5,a4
    80000c4c:	00078023          	sb	zero,0(a5)
    80000c50:	fec42783          	lw	a5,-20(s0)
    80000c54:	853e                	mv	a0,a5
    80000c56:	70a2                	ld	ra,40(sp)
    80000c58:	7402                	ld	s0,32(sp)
    80000c5a:	6145                	addi	sp,sp,48
    80000c5c:	8082                	ret

0000000080000c5e <ftoa>:
    80000c5e:	715d                	addi	sp,sp,-80
    80000c60:	e486                	sd	ra,72(sp)
    80000c62:	e0a2                	sd	s0,64(sp)
    80000c64:	0880                	addi	s0,sp,80
    80000c66:	faa42e23          	sw	a0,-68(s0)
    80000c6a:	fab43823          	sd	a1,-80(s0)
    80000c6e:	87b2                	mv	a5,a2
    80000c70:	faf42c23          	sw	a5,-72(s0)
    80000c74:	fe042623          	sw	zero,-20(s0)
    80000c78:	fc043023          	sd	zero,-64(s0)
    80000c7c:	fc043423          	sd	zero,-56(s0)
    80000c80:	fc043823          	sd	zero,-48(s0)
    80000c84:	fc042c23          	sw	zero,-40(s0)
    80000c88:	fc041e23          	sh	zero,-36(s0)
    80000c8c:	fbc42503          	lw	a0,-68(s0)
    80000c90:	0f6030ef          	jal	ra,80003d86 <__extendsfdf2>
    80000c94:	872a                	mv	a4,a0
    80000c96:	00003797          	auipc	a5,0x3
    80000c9a:	3fa78793          	addi	a5,a5,1018 # 80004090 <__rodata_start+0xf0>
    80000c9e:	638c                	ld	a1,0(a5)
    80000ca0:	853a                	mv	a0,a4
    80000ca2:	586020ef          	jal	ra,80003228 <__adddf3>
    80000ca6:	87aa                	mv	a5,a0
    80000ca8:	853e                	mv	a0,a5
    80000caa:	14a030ef          	jal	ra,80003df4 <__truncdfsf2>
    80000cae:	87aa                	mv	a5,a0
    80000cb0:	faf42e23          	sw	a5,-68(s0)
    80000cb4:	fbc42503          	lw	a0,-68(s0)
    80000cb8:	6e1020ef          	jal	ra,80003b98 <__fixsfsi>
    80000cbc:	87aa                	mv	a5,a0
    80000cbe:	fef42423          	sw	a5,-24(s0)
    80000cc2:	fe842783          	lw	a5,-24(s0)
    80000cc6:	853e                	mv	a0,a5
    80000cc8:	73d020ef          	jal	ra,80003c04 <__floatsisf>
    80000ccc:	87aa                	mv	a5,a0
    80000cce:	85be                	mv	a1,a5
    80000cd0:	fbc42503          	lw	a0,-68(s0)
    80000cd4:	367020ef          	jal	ra,8000383a <__subsf3>
    80000cd8:	87aa                	mv	a5,a0
    80000cda:	fef42223          	sw	a5,-28(s0)
    80000cde:	fe042023          	sw	zero,-32(s0)
    80000ce2:	00000593          	li	a1,0
    80000ce6:	fbc42503          	lw	a0,-68(s0)
    80000cea:	0df020ef          	jal	ra,800035c8 <__lesf2>
    80000cee:	87aa                	mv	a5,a0
    80000cf0:	0007de63          	bgez	a5,80000d0c <ftoa+0xae>
    80000cf4:	fe042783          	lw	a5,-32(s0)
    80000cf8:	fb043703          	ld	a4,-80(s0)
    80000cfc:	97ba                	add	a5,a5,a4
    80000cfe:	02d00713          	li	a4,45
    80000d02:	00e78023          	sb	a4,0(a5)
    80000d06:	4785                	li	a5,1
    80000d08:	fef42023          	sw	a5,-32(s0)
    80000d0c:	fe842783          	lw	a5,-24(s0)
    80000d10:	2781                	sext.w	a5,a5
    80000d12:	e385                	bnez	a5,80000d32 <ftoa+0xd4>
    80000d14:	fe042783          	lw	a5,-32(s0)
    80000d18:	fb043703          	ld	a4,-80(s0)
    80000d1c:	97ba                	add	a5,a5,a4
    80000d1e:	03000713          	li	a4,48
    80000d22:	00e78023          	sb	a4,0(a5)
    80000d26:	fe042783          	lw	a5,-32(s0)
    80000d2a:	2785                	addiw	a5,a5,1
    80000d2c:	fef42023          	sw	a5,-32(s0)
    80000d30:	a099                	j	80000d76 <ftoa+0x118>
    80000d32:	fe842783          	lw	a5,-24(s0)
    80000d36:	2781                	sext.w	a5,a5
    80000d38:	0007d863          	bgez	a5,80000d48 <ftoa+0xea>
    80000d3c:	fe842783          	lw	a5,-24(s0)
    80000d40:	40f007bb          	negw	a5,a5
    80000d44:	fef42423          	sw	a5,-24(s0)
    80000d48:	fc040713          	addi	a4,s0,-64
    80000d4c:	fe842783          	lw	a5,-24(s0)
    80000d50:	4601                	li	a2,0
    80000d52:	85ba                	mv	a1,a4
    80000d54:	853e                	mv	a0,a5
    80000d56:	e4bff0ef          	jal	ra,80000ba0 <int_to_string>
    80000d5a:	87aa                	mv	a5,a0
    80000d5c:	fef42623          	sw	a5,-20(s0)
    80000d60:	fe042783          	lw	a5,-32(s0)
    80000d64:	fb043703          	ld	a4,-80(s0)
    80000d68:	97ba                	add	a5,a5,a4
    80000d6a:	fc040713          	addi	a4,s0,-64
    80000d6e:	85ba                	mv	a1,a4
    80000d70:	853e                	mv	a0,a5
    80000d72:	18e030ef          	jal	ra,80003f00 <strcpy>
    80000d76:	fec42703          	lw	a4,-20(s0)
    80000d7a:	fe042783          	lw	a5,-32(s0)
    80000d7e:	9fb9                	addw	a5,a5,a4
    80000d80:	fef42623          	sw	a5,-20(s0)
    80000d84:	fb842783          	lw	a5,-72(s0)
    80000d88:	2781                	sext.w	a5,a5
    80000d8a:	c3d9                	beqz	a5,80000e10 <ftoa+0x1b2>
    80000d8c:	fec42783          	lw	a5,-20(s0)
    80000d90:	fb043703          	ld	a4,-80(s0)
    80000d94:	97ba                	add	a5,a5,a4
    80000d96:	02e00713          	li	a4,46
    80000d9a:	00e78023          	sb	a4,0(a5)
    80000d9e:	00000593          	li	a1,0
    80000da2:	fe442503          	lw	a0,-28(s0)
    80000da6:	023020ef          	jal	ra,800035c8 <__lesf2>
    80000daa:	87aa                	mv	a5,a0
    80000dac:	0007da63          	bgez	a5,80000dc0 <ftoa+0x162>
    80000db0:	fe442703          	lw	a4,-28(s0)
    80000db4:	800007b7          	lui	a5,0x80000
    80000db8:	8fb9                	xor	a5,a5,a4
    80000dba:	fef42223          	sw	a5,-28(s0)
    80000dbe:	a039                	j	80000dcc <ftoa+0x16e>
    80000dc0:	00000593          	li	a1,0
    80000dc4:	fe442503          	lw	a0,-28(s0)
    80000dc8:	7a2020ef          	jal	ra,8000356a <__eqsf2>
    80000dcc:	fb842783          	lw	a5,-72(s0)
    80000dd0:	853e                	mv	a0,a5
    80000dd2:	ce3ff0ef          	jal	ra,80000ab4 <pow_10>
    80000dd6:	87aa                	mv	a5,a0
    80000dd8:	85be                	mv	a1,a5
    80000dda:	fe442503          	lw	a0,-28(s0)
    80000dde:	06f020ef          	jal	ra,8000364c <__mulsf3>
    80000de2:	87aa                	mv	a5,a0
    80000de4:	fef42223          	sw	a5,-28(s0)
    80000de8:	fe442503          	lw	a0,-28(s0)
    80000dec:	5ad020ef          	jal	ra,80003b98 <__fixsfsi>
    80000df0:	87aa                	mv	a5,a0
    80000df2:	0007869b          	sext.w	a3,a5
    80000df6:	fec42783          	lw	a5,-20(s0)
    80000dfa:	0785                	addi	a5,a5,1
    80000dfc:	fb043703          	ld	a4,-80(s0)
    80000e00:	97ba                	add	a5,a5,a4
    80000e02:	fb842703          	lw	a4,-72(s0)
    80000e06:	863a                	mv	a2,a4
    80000e08:	85be                	mv	a1,a5
    80000e0a:	8536                	mv	a0,a3
    80000e0c:	d95ff0ef          	jal	ra,80000ba0 <int_to_string>
    80000e10:	0001                	nop
    80000e12:	60a6                	ld	ra,72(sp)
    80000e14:	6406                	ld	s0,64(sp)
    80000e16:	6161                	addi	sp,sp,80
    80000e18:	8082                	ret

0000000080000e1a <delay_loop>:
    80000e1a:	7179                	addi	sp,sp,-48
    80000e1c:	f422                	sd	s0,40(sp)
    80000e1e:	1800                	addi	s0,sp,48
    80000e20:	fca43c23          	sd	a0,-40(s0)
    80000e24:	fcb43823          	sd	a1,-48(s0)
    80000e28:	fd043783          	ld	a5,-48(s0)
    80000e2c:	fef43423          	sd	a5,-24(s0)
    80000e30:	a829                	j	80000e4a <delay_loop+0x30>
    80000e32:	fd043783          	ld	a5,-48(s0)
    80000e36:	fef43423          	sd	a5,-24(s0)
    80000e3a:	0001                	nop
    80000e3c:	fe843783          	ld	a5,-24(s0)
    80000e40:	fff78713          	addi	a4,a5,-1 # ffffffff7fffffff <__stack_pointer$+0xfffffffef80003ff>
    80000e44:	fee43423          	sd	a4,-24(s0)
    80000e48:	fbf5                	bnez	a5,80000e3c <delay_loop+0x22>
    80000e4a:	fd843783          	ld	a5,-40(s0)
    80000e4e:	fff78713          	addi	a4,a5,-1
    80000e52:	fce43c23          	sd	a4,-40(s0)
    80000e56:	fff1                	bnez	a5,80000e32 <delay_loop+0x18>
    80000e58:	0001                	nop
    80000e5a:	0001                	nop
    80000e5c:	7422                	ld	s0,40(sp)
    80000e5e:	6145                	addi	sp,sp,48
    80000e60:	8082                	ret

0000000080000e62 <read_word>:
    80000e62:	1101                	addi	sp,sp,-32
    80000e64:	ec06                	sd	ra,24(sp)
    80000e66:	e822                	sd	s0,16(sp)
    80000e68:	1000                	addi	s0,sp,32
    80000e6a:	fea43423          	sd	a0,-24(s0)
    80000e6e:	fe843783          	ld	a5,-24(s0)
    80000e72:	439c                	lw	a5,0(a5)
    80000e74:	863e                	mv	a2,a5
    80000e76:	fe843583          	ld	a1,-24(s0)
    80000e7a:	00003517          	auipc	a0,0x3
    80000e7e:	1fe50513          	addi	a0,a0,510 # 80004078 <__rodata_start+0xd8>
    80000e82:	21a000ef          	jal	ra,8000109c <log_debug>
    80000e86:	fe843783          	ld	a5,-24(s0)
    80000e8a:	439c                	lw	a5,0(a5)
    80000e8c:	1782                	slli	a5,a5,0x20
    80000e8e:	9381                	srli	a5,a5,0x20
    80000e90:	853e                	mv	a0,a5
    80000e92:	60e2                	ld	ra,24(sp)
    80000e94:	6442                	ld	s0,16(sp)
    80000e96:	6105                	addi	sp,sp,32
    80000e98:	8082                	ret

0000000080000e9a <write_word>:
    80000e9a:	1101                	addi	sp,sp,-32
    80000e9c:	ec06                	sd	ra,24(sp)
    80000e9e:	e822                	sd	s0,16(sp)
    80000ea0:	1000                	addi	s0,sp,32
    80000ea2:	fea43423          	sd	a0,-24(s0)
    80000ea6:	feb43023          	sd	a1,-32(s0)
    80000eaa:	fe043783          	ld	a5,-32(s0)
    80000eae:	0007871b          	sext.w	a4,a5
    80000eb2:	fe843783          	ld	a5,-24(s0)
    80000eb6:	c398                	sw	a4,0(a5)
    80000eb8:	fe843783          	ld	a5,-24(s0)
    80000ebc:	439c                	lw	a5,0(a5)
    80000ebe:	863e                	mv	a2,a5
    80000ec0:	fe843583          	ld	a1,-24(s0)
    80000ec4:	00003517          	auipc	a0,0x3
    80000ec8:	1b450513          	addi	a0,a0,436 # 80004078 <__rodata_start+0xd8>
    80000ecc:	1d0000ef          	jal	ra,8000109c <log_debug>
    80000ed0:	0001                	nop
    80000ed2:	60e2                	ld	ra,24(sp)
    80000ed4:	6442                	ld	s0,16(sp)
    80000ed6:	6105                	addi	sp,sp,32
    80000ed8:	8082                	ret

0000000080000eda <extract_ie_code>:
    80000eda:	7179                	addi	sp,sp,-48
    80000edc:	f406                	sd	ra,40(sp)
    80000ede:	f022                	sd	s0,32(sp)
    80000ee0:	1800                	addi	s0,sp,48
    80000ee2:	87aa                	mv	a5,a0
    80000ee4:	fcf42e23          	sw	a5,-36(s0)
    80000ee8:	00003517          	auipc	a0,0x3
    80000eec:	1b050513          	addi	a0,a0,432 # 80004098 <__rodata_start+0xf8>
    80000ef0:	13e000ef          	jal	ra,8000102e <log_trace>
    80000ef4:	fdc42703          	lw	a4,-36(s0)
    80000ef8:	800007b7          	lui	a5,0x80000
    80000efc:	fff7c793          	not	a5,a5
    80000f00:	8ff9                	and	a5,a5,a4
    80000f02:	fef42623          	sw	a5,-20(s0)
    80000f06:	fec42783          	lw	a5,-20(s0)
    80000f0a:	85be                	mv	a1,a5
    80000f0c:	00003517          	auipc	a0,0x3
    80000f10:	1ac50513          	addi	a0,a0,428 # 800040b8 <__rodata_start+0x118>
    80000f14:	188000ef          	jal	ra,8000109c <log_debug>
    80000f18:	00003517          	auipc	a0,0x3
    80000f1c:	1b850513          	addi	a0,a0,440 # 800040d0 <__rodata_start+0x130>
    80000f20:	10e000ef          	jal	ra,8000102e <log_trace>
    80000f24:	fec42783          	lw	a5,-20(s0)
    80000f28:	853e                	mv	a0,a5
    80000f2a:	70a2                	ld	ra,40(sp)
    80000f2c:	7402                	ld	s0,32(sp)
    80000f2e:	6145                	addi	sp,sp,48
    80000f30:	8082                	ret

0000000080000f32 <default_handler>:
    80000f32:	1101                	addi	sp,sp,-32
    80000f34:	ec06                	sd	ra,24(sp)
    80000f36:	e822                	sd	s0,16(sp)
    80000f38:	1000                	addi	s0,sp,32
    80000f3a:	fea43423          	sd	a0,-24(s0)
    80000f3e:	feb43023          	sd	a1,-32(s0)
    80000f42:	00003517          	auipc	a0,0x3
    80000f46:	1a650513          	addi	a0,a0,422 # 800040e8 <__rodata_start+0x148>
    80000f4a:	0e4000ef          	jal	ra,8000102e <log_trace>
    80000f4e:	a001                	j	80000f4e <default_handler+0x1c>

0000000080000f50 <handle_trap>:
    80000f50:	7179                	addi	sp,sp,-48
    80000f52:	f406                	sd	ra,40(sp)
    80000f54:	f022                	sd	s0,32(sp)
    80000f56:	1800                	addi	s0,sp,48
    80000f58:	fca43c23          	sd	a0,-40(s0)
    80000f5c:	fcb43823          	sd	a1,-48(s0)
    80000f60:	fe042623          	sw	zero,-20(s0)
    80000f64:	fe042423          	sw	zero,-24(s0)
    80000f68:	00003517          	auipc	a0,0x3
    80000f6c:	1a050513          	addi	a0,a0,416 # 80004108 <__rodata_start+0x168>
    80000f70:	0be000ef          	jal	ra,8000102e <log_trace>
    80000f74:	45a1                	li	a1,8
    80000f76:	00003517          	auipc	a0,0x3
    80000f7a:	1aa50513          	addi	a0,a0,426 # 80004120 <__rodata_start+0x180>
    80000f7e:	11e000ef          	jal	ra,8000109c <log_debug>
    80000f82:	03f00793          	li	a5,63
    80000f86:	fef42423          	sw	a5,-24(s0)
    80000f8a:	fe842783          	lw	a5,-24(s0)
    80000f8e:	4705                	li	a4,1
    80000f90:	00f717bb          	sllw	a5,a4,a5
    80000f94:	2781                	sext.w	a5,a5
    80000f96:	873e                	mv	a4,a5
    80000f98:	fd843783          	ld	a5,-40(s0)
    80000f9c:	8ff9                	and	a5,a5,a4
    80000f9e:	c3b9                	beqz	a5,80000fe4 <handle_trap+0x94>
    80000fa0:	fd843783          	ld	a5,-40(s0)
    80000fa4:	2781                	sext.w	a5,a5
    80000fa6:	853e                	mv	a0,a5
    80000fa8:	f33ff0ef          	jal	ra,80000eda <extract_ie_code>
    80000fac:	87aa                	mv	a5,a0
    80000fae:	fef42623          	sw	a5,-20(s0)
    80000fb2:	fd043603          	ld	a2,-48(s0)
    80000fb6:	fd843583          	ld	a1,-40(s0)
    80000fba:	00003517          	auipc	a0,0x3
    80000fbe:	17e50513          	addi	a0,a0,382 # 80004138 <__rodata_start+0x198>
    80000fc2:	090000ef          	jal	ra,80001052 <log_info>
    80000fc6:	00013717          	auipc	a4,0x13
    80000fca:	5ea70713          	addi	a4,a4,1514 # 800145b0 <mcause_interrupt_table>
    80000fce:	fec46783          	lwu	a5,-20(s0)
    80000fd2:	078e                	slli	a5,a5,0x3
    80000fd4:	97ba                	add	a5,a5,a4
    80000fd6:	639c                	ld	a5,0(a5)
    80000fd8:	fd043583          	ld	a1,-48(s0)
    80000fdc:	fd843503          	ld	a0,-40(s0)
    80000fe0:	9782                	jalr	a5
    80000fe2:	a80d                	j	80001014 <handle_trap+0xc4>
    80000fe4:	fd043603          	ld	a2,-48(s0)
    80000fe8:	fd843583          	ld	a1,-40(s0)
    80000fec:	00003517          	auipc	a0,0x3
    80000ff0:	17450513          	addi	a0,a0,372 # 80004160 <__rodata_start+0x1c0>
    80000ff4:	05e000ef          	jal	ra,80001052 <log_info>
    80000ff8:	00013717          	auipc	a4,0x13
    80000ffc:	63870713          	addi	a4,a4,1592 # 80014630 <mcause_trap_table>
    80001000:	fd843783          	ld	a5,-40(s0)
    80001004:	078e                	slli	a5,a5,0x3
    80001006:	97ba                	add	a5,a5,a4
    80001008:	639c                	ld	a5,0(a5)
    8000100a:	fd043583          	ld	a1,-48(s0)
    8000100e:	fd843503          	ld	a0,-40(s0)
    80001012:	9782                	jalr	a5
    80001014:	00003517          	auipc	a0,0x3
    80001018:	17450513          	addi	a0,a0,372 # 80004188 <__rodata_start+0x1e8>
    8000101c:	012000ef          	jal	ra,8000102e <log_trace>
    80001020:	fd043783          	ld	a5,-48(s0)
    80001024:	853e                	mv	a0,a5
    80001026:	70a2                	ld	ra,40(sp)
    80001028:	7402                	ld	s0,32(sp)
    8000102a:	6145                	addi	sp,sp,48
    8000102c:	8082                	ret

000000008000102e <log_trace>:
    8000102e:	7159                	addi	sp,sp,-112
    80001030:	f422                	sd	s0,40(sp)
    80001032:	1800                	addi	s0,sp,48
    80001034:	fca43c23          	sd	a0,-40(s0)
    80001038:	e40c                	sd	a1,8(s0)
    8000103a:	e810                	sd	a2,16(s0)
    8000103c:	ec14                	sd	a3,24(s0)
    8000103e:	f018                	sd	a4,32(s0)
    80001040:	f41c                	sd	a5,40(s0)
    80001042:	03043823          	sd	a6,48(s0)
    80001046:	03143c23          	sd	a7,56(s0)
    8000104a:	0001                	nop
    8000104c:	7422                	ld	s0,40(sp)
    8000104e:	6165                	addi	sp,sp,112
    80001050:	8082                	ret

0000000080001052 <log_info>:
    80001052:	7159                	addi	sp,sp,-112
    80001054:	f406                	sd	ra,40(sp)
    80001056:	f022                	sd	s0,32(sp)
    80001058:	1800                	addi	s0,sp,48
    8000105a:	fca43c23          	sd	a0,-40(s0)
    8000105e:	e40c                	sd	a1,8(s0)
    80001060:	e810                	sd	a2,16(s0)
    80001062:	ec14                	sd	a3,24(s0)
    80001064:	f018                	sd	a4,32(s0)
    80001066:	f41c                	sd	a5,40(s0)
    80001068:	03043823          	sd	a6,48(s0)
    8000106c:	03143c23          	sd	a7,56(s0)
    80001070:	04040793          	addi	a5,s0,64
    80001074:	fcf43823          	sd	a5,-48(s0)
    80001078:	fd043783          	ld	a5,-48(s0)
    8000107c:	fc878793          	addi	a5,a5,-56 # ffffffff7fffffc8 <__stack_pointer$+0xfffffffef80003c8>
    80001080:	fef43423          	sd	a5,-24(s0)
    80001084:	fe843783          	ld	a5,-24(s0)
    80001088:	85be                	mv	a1,a5
    8000108a:	fd843503          	ld	a0,-40(s0)
    8000108e:	1ea000ef          	jal	ra,80001278 <_printf_>
    80001092:	0001                	nop
    80001094:	70a2                	ld	ra,40(sp)
    80001096:	7402                	ld	s0,32(sp)
    80001098:	6165                	addi	sp,sp,112
    8000109a:	8082                	ret

000000008000109c <log_debug>:
    8000109c:	7159                	addi	sp,sp,-112
    8000109e:	f422                	sd	s0,40(sp)
    800010a0:	1800                	addi	s0,sp,48
    800010a2:	fca43c23          	sd	a0,-40(s0)
    800010a6:	e40c                	sd	a1,8(s0)
    800010a8:	e810                	sd	a2,16(s0)
    800010aa:	ec14                	sd	a3,24(s0)
    800010ac:	f018                	sd	a4,32(s0)
    800010ae:	f41c                	sd	a5,40(s0)
    800010b0:	03043823          	sd	a6,48(s0)
    800010b4:	03143c23          	sd	a7,56(s0)
    800010b8:	0001                	nop
    800010ba:	7422                	ld	s0,40(sp)
    800010bc:	6165                	addi	sp,sp,112
    800010be:	8082                	ret

00000000800010c0 <log_warn>:
    800010c0:	7159                	addi	sp,sp,-112
    800010c2:	f406                	sd	ra,40(sp)
    800010c4:	f022                	sd	s0,32(sp)
    800010c6:	1800                	addi	s0,sp,48
    800010c8:	fca43c23          	sd	a0,-40(s0)
    800010cc:	e40c                	sd	a1,8(s0)
    800010ce:	e810                	sd	a2,16(s0)
    800010d0:	ec14                	sd	a3,24(s0)
    800010d2:	f018                	sd	a4,32(s0)
    800010d4:	f41c                	sd	a5,40(s0)
    800010d6:	03043823          	sd	a6,48(s0)
    800010da:	03143c23          	sd	a7,56(s0)
    800010de:	04040793          	addi	a5,s0,64
    800010e2:	fcf43823          	sd	a5,-48(s0)
    800010e6:	fd043783          	ld	a5,-48(s0)
    800010ea:	fc878793          	addi	a5,a5,-56
    800010ee:	fef43423          	sd	a5,-24(s0)
    800010f2:	fe843783          	ld	a5,-24(s0)
    800010f6:	85be                	mv	a1,a5
    800010f8:	fd843503          	ld	a0,-40(s0)
    800010fc:	17c000ef          	jal	ra,80001278 <_printf_>
    80001100:	0001                	nop
    80001102:	70a2                	ld	ra,40(sp)
    80001104:	7402                	ld	s0,32(sp)
    80001106:	6165                	addi	sp,sp,112
    80001108:	8082                	ret

000000008000110a <log_error>:
    8000110a:	7159                	addi	sp,sp,-112
    8000110c:	f406                	sd	ra,40(sp)
    8000110e:	f022                	sd	s0,32(sp)
    80001110:	1800                	addi	s0,sp,48
    80001112:	fca43c23          	sd	a0,-40(s0)
    80001116:	e40c                	sd	a1,8(s0)
    80001118:	e810                	sd	a2,16(s0)
    8000111a:	ec14                	sd	a3,24(s0)
    8000111c:	f018                	sd	a4,32(s0)
    8000111e:	f41c                	sd	a5,40(s0)
    80001120:	03043823          	sd	a6,48(s0)
    80001124:	03143c23          	sd	a7,56(s0)
    80001128:	04040793          	addi	a5,s0,64
    8000112c:	fcf43823          	sd	a5,-48(s0)
    80001130:	fd043783          	ld	a5,-48(s0)
    80001134:	fc878793          	addi	a5,a5,-56
    80001138:	fef43423          	sd	a5,-24(s0)
    8000113c:	fe843783          	ld	a5,-24(s0)
    80001140:	85be                	mv	a1,a5
    80001142:	fd843503          	ld	a0,-40(s0)
    80001146:	132000ef          	jal	ra,80001278 <_printf_>
    8000114a:	0001                	nop
    8000114c:	70a2                	ld	ra,40(sp)
    8000114e:	7402                	ld	s0,32(sp)
    80001150:	6165                	addi	sp,sp,112
    80001152:	8082                	ret

0000000080001154 <log_fatal>:
    80001154:	7159                	addi	sp,sp,-112
    80001156:	f406                	sd	ra,40(sp)
    80001158:	f022                	sd	s0,32(sp)
    8000115a:	1800                	addi	s0,sp,48
    8000115c:	fca43c23          	sd	a0,-40(s0)
    80001160:	e40c                	sd	a1,8(s0)
    80001162:	e810                	sd	a2,16(s0)
    80001164:	ec14                	sd	a3,24(s0)
    80001166:	f018                	sd	a4,32(s0)
    80001168:	f41c                	sd	a5,40(s0)
    8000116a:	03043823          	sd	a6,48(s0)
    8000116e:	03143c23          	sd	a7,56(s0)
    80001172:	04040793          	addi	a5,s0,64
    80001176:	fcf43823          	sd	a5,-48(s0)
    8000117a:	fd043783          	ld	a5,-48(s0)
    8000117e:	fc878793          	addi	a5,a5,-56
    80001182:	fef43423          	sd	a5,-24(s0)
    80001186:	fe843783          	ld	a5,-24(s0)
    8000118a:	85be                	mv	a1,a5
    8000118c:	fd843503          	ld	a0,-40(s0)
    80001190:	0e8000ef          	jal	ra,80001278 <_printf_>
    80001194:	00003517          	auipc	a0,0x3
    80001198:	00c50513          	addi	a0,a0,12 # 800041a0 <__rodata_start+0x200>
    8000119c:	eb7ff0ef          	jal	ra,80001052 <log_info>
    800011a0:	a001                	j	800011a0 <log_fatal+0x4c>

00000000800011a2 <itoa>:
    800011a2:	7169                	addi	sp,sp,-304
    800011a4:	f606                	sd	ra,296(sp)
    800011a6:	f222                	sd	s0,288(sp)
    800011a8:	1a00                	addi	s0,sp,304
    800011aa:	eca43c23          	sd	a0,-296(s0)
    800011ae:	87ae                	mv	a5,a1
    800011b0:	ecf42a23          	sw	a5,-300(s0)
    800011b4:	fe042623          	sw	zero,-20(s0)
    800011b8:	fe042423          	sw	zero,-24(s0)
    800011bc:	ed446783          	lwu	a5,-300(s0)
    800011c0:	ed843703          	ld	a4,-296(s0)
    800011c4:	02f777b3          	remu	a5,a4,a5
    800011c8:	0007871b          	sext.w	a4,a5
    800011cc:	fec42783          	lw	a5,-20(s0)
    800011d0:	078a                	slli	a5,a5,0x2
    800011d2:	ff040693          	addi	a3,s0,-16
    800011d6:	97b6                	add	a5,a5,a3
    800011d8:	eee7ac23          	sw	a4,-264(a5)
    800011dc:	ed446783          	lwu	a5,-300(s0)
    800011e0:	ed843703          	ld	a4,-296(s0)
    800011e4:	02f76063          	bltu	a4,a5,80001204 <itoa+0x62>
    800011e8:	ed446783          	lwu	a5,-300(s0)
    800011ec:	ed843703          	ld	a4,-296(s0)
    800011f0:	02f757b3          	divu	a5,a4,a5
    800011f4:	ecf43c23          	sd	a5,-296(s0)
    800011f8:	fec42783          	lw	a5,-20(s0)
    800011fc:	2785                	addiw	a5,a5,1
    800011fe:	fef42623          	sw	a5,-20(s0)
    80001202:	bf6d                	j	800011bc <itoa+0x1a>
    80001204:	0001                	nop
    80001206:	fec42783          	lw	a5,-20(s0)
    8000120a:	2785                	addiw	a5,a5,1
    8000120c:	fef42623          	sw	a5,-20(s0)
    80001210:	a0b1                	j	8000125c <itoa+0xba>
    80001212:	fec42783          	lw	a5,-20(s0)
    80001216:	078a                	slli	a5,a5,0x2
    80001218:	ff040713          	addi	a4,s0,-16
    8000121c:	97ba                	add	a5,a5,a4
    8000121e:	ef87a783          	lw	a5,-264(a5)
    80001222:	873e                	mv	a4,a5
    80001224:	47a5                	li	a5,9
    80001226:	00e7f763          	bgeu	a5,a4,80001234 <itoa+0x92>
    8000122a:	05700793          	li	a5,87
    8000122e:	fef42423          	sw	a5,-24(s0)
    80001232:	a029                	j	8000123c <itoa+0x9a>
    80001234:	03000793          	li	a5,48
    80001238:	fef42423          	sw	a5,-24(s0)
    8000123c:	fec42783          	lw	a5,-20(s0)
    80001240:	078a                	slli	a5,a5,0x2
    80001242:	ff040713          	addi	a4,s0,-16
    80001246:	97ba                	add	a5,a5,a4
    80001248:	ef87a783          	lw	a5,-264(a5)
    8000124c:	fe842703          	lw	a4,-24(s0)
    80001250:	9fb9                	addw	a5,a5,a4
    80001252:	2781                	sext.w	a5,a5
    80001254:	2781                	sext.w	a5,a5
    80001256:	853e                	mv	a0,a5
    80001258:	4a2000ef          	jal	ra,800016fa <putchar>
    8000125c:	fec42783          	lw	a5,-20(s0)
    80001260:	fff7871b          	addiw	a4,a5,-1
    80001264:	fee42623          	sw	a4,-20(s0)
    80001268:	faf045e3          	bgtz	a5,80001212 <itoa+0x70>
    8000126c:	0001                	nop
    8000126e:	0001                	nop
    80001270:	70b2                	ld	ra,296(sp)
    80001272:	7412                	ld	s0,288(sp)
    80001274:	6155                	addi	sp,sp,304
    80001276:	8082                	ret

0000000080001278 <_printf_>:
    80001278:	7119                	addi	sp,sp,-128
    8000127a:	fc86                	sd	ra,120(sp)
    8000127c:	f8a2                	sd	s0,112(sp)
    8000127e:	f4a6                	sd	s1,104(sp)
    80001280:	f0ca                	sd	s2,96(sp)
    80001282:	0100                	addi	s0,sp,128
    80001284:	f8a43423          	sd	a0,-120(s0)
    80001288:	f8b43023          	sd	a1,-128(s0)
    8000128c:	00000793          	li	a5,0
    80001290:	fcf42423          	sw	a5,-56(s0)
    80001294:	f8043c23          	sd	zero,-104(s0)
    80001298:	fa043023          	sd	zero,-96(s0)
    8000129c:	fa043423          	sd	zero,-88(s0)
    800012a0:	fa042823          	sw	zero,-80(s0)
    800012a4:	fa041a23          	sh	zero,-76(s0)
    800012a8:	a819                	j	800012be <_printf_+0x46>
    800012aa:	36048a63          	beqz	s1,8000161e <_printf_+0x3a6>
    800012ae:	8526                	mv	a0,s1
    800012b0:	44a000ef          	jal	ra,800016fa <putchar>
    800012b4:	f8843783          	ld	a5,-120(s0)
    800012b8:	0785                	addi	a5,a5,1
    800012ba:	f8f43423          	sd	a5,-120(s0)
    800012be:	f8843783          	ld	a5,-120(s0)
    800012c2:	0007c783          	lbu	a5,0(a5)
    800012c6:	0007849b          	sext.w	s1,a5
    800012ca:	8726                	mv	a4,s1
    800012cc:	02500793          	li	a5,37
    800012d0:	fcf71de3          	bne	a4,a5,800012aa <_printf_+0x32>
    800012d4:	f8843783          	ld	a5,-120(s0)
    800012d8:	0785                	addi	a5,a5,1
    800012da:	f8f43423          	sd	a5,-120(s0)
    800012de:	f8843783          	ld	a5,-120(s0)
    800012e2:	fcf43023          	sd	a5,-64(s0)
    800012e6:	fc042a23          	sw	zero,-44(s0)
    800012ea:	fc042623          	sw	zero,-52(s0)
    800012ee:	f8843783          	ld	a5,-120(s0)
    800012f2:	00178713          	addi	a4,a5,1
    800012f6:	f8e43423          	sd	a4,-120(s0)
    800012fa:	0007c783          	lbu	a5,0(a5)
    800012fe:	0007849b          	sext.w	s1,a5
    80001302:	8726                	mv	a4,s1
    80001304:	02500793          	li	a5,37
    80001308:	2ef70563          	beq	a4,a5,800015f2 <_printf_+0x37a>
    8000130c:	8726                	mv	a4,s1
    8000130e:	02500793          	li	a5,37
    80001312:	2ef74463          	blt	a4,a5,800015fa <_printf_+0x382>
    80001316:	8726                	mv	a4,s1
    80001318:	07800793          	li	a5,120
    8000131c:	2ce7cf63          	blt	a5,a4,800015fa <_printf_+0x382>
    80001320:	8726                	mv	a4,s1
    80001322:	06300793          	li	a5,99
    80001326:	2cf74a63          	blt	a4,a5,800015fa <_printf_+0x382>
    8000132a:	f9d4869b          	addiw	a3,s1,-99
    8000132e:	0006871b          	sext.w	a4,a3
    80001332:	47d5                	li	a5,21
    80001334:	2ce7e363          	bltu	a5,a4,800015fa <_printf_+0x382>
    80001338:	02069793          	slli	a5,a3,0x20
    8000133c:	9381                	srli	a5,a5,0x20
    8000133e:	00279713          	slli	a4,a5,0x2
    80001342:	00003797          	auipc	a5,0x3
    80001346:	e7678793          	addi	a5,a5,-394 # 800041b8 <__rodata_start+0x218>
    8000134a:	97ba                	add	a5,a5,a4
    8000134c:	439c                	lw	a5,0(a5)
    8000134e:	0007871b          	sext.w	a4,a5
    80001352:	00003797          	auipc	a5,0x3
    80001356:	e6678793          	addi	a5,a5,-410 # 800041b8 <__rodata_start+0x218>
    8000135a:	97ba                	add	a5,a5,a4
    8000135c:	8782                	jr	a5
    8000135e:	fd442783          	lw	a5,-44(s0)
    80001362:	2785                	addiw	a5,a5,1
    80001364:	fcf42a23          	sw	a5,-44(s0)
    80001368:	4785                	li	a5,1
    8000136a:	fcf42623          	sw	a5,-52(s0)
    8000136e:	ac79                	j	8000160c <_printf_+0x394>
    80001370:	f8043783          	ld	a5,-128(s0)
    80001374:	00878713          	addi	a4,a5,8
    80001378:	f8e43023          	sd	a4,-128(s0)
    8000137c:	439c                	lw	a5,0(a5)
    8000137e:	853e                	mv	a0,a5
    80001380:	37a000ef          	jal	ra,800016fa <putchar>
    80001384:	a461                	j	8000160c <_printf_+0x394>
    80001386:	f8043783          	ld	a5,-128(s0)
    8000138a:	00878713          	addi	a4,a5,8
    8000138e:	f8e43023          	sd	a4,-128(s0)
    80001392:	0007b903          	ld	s2,0(a5)
    80001396:	00091b63          	bnez	s2,800013ac <_printf_+0x134>
    8000139a:	00003917          	auipc	s2,0x3
    8000139e:	e1690913          	addi	s2,s2,-490 # 800041b0 <__rodata_start+0x210>
    800013a2:	a029                	j	800013ac <_printf_+0x134>
    800013a4:	8526                	mv	a0,s1
    800013a6:	354000ef          	jal	ra,800016fa <putchar>
    800013aa:	0905                	addi	s2,s2,1
    800013ac:	00094783          	lbu	a5,0(s2)
    800013b0:	0007849b          	sext.w	s1,a5
    800013b4:	f8e5                	bnez	s1,800013a4 <_printf_+0x12c>
    800013b6:	ac99                	j	8000160c <_printf_+0x394>
    800013b8:	47a9                	li	a5,10
    800013ba:	faf42e23          	sw	a5,-68(s0)
    800013be:	fd442783          	lw	a5,-44(s0)
    800013c2:	0007871b          	sext.w	a4,a5
    800013c6:	4785                	li	a5,1
    800013c8:	00e7dc63          	bge	a5,a4,800013e0 <_printf_+0x168>
    800013cc:	f8043783          	ld	a5,-128(s0)
    800013d0:	00878713          	addi	a4,a5,8
    800013d4:	f8e43023          	sd	a4,-128(s0)
    800013d8:	639c                	ld	a5,0(a5)
    800013da:	fcf43c23          	sd	a5,-40(s0)
    800013de:	a81d                	j	80001414 <_printf_+0x19c>
    800013e0:	fd442783          	lw	a5,-44(s0)
    800013e4:	0007871b          	sext.w	a4,a5
    800013e8:	4785                	li	a5,1
    800013ea:	00f71c63          	bne	a4,a5,80001402 <_printf_+0x18a>
    800013ee:	f8043783          	ld	a5,-128(s0)
    800013f2:	00878713          	addi	a4,a5,8
    800013f6:	f8e43023          	sd	a4,-128(s0)
    800013fa:	639c                	ld	a5,0(a5)
    800013fc:	fcf43c23          	sd	a5,-40(s0)
    80001400:	a811                	j	80001414 <_printf_+0x19c>
    80001402:	f8043783          	ld	a5,-128(s0)
    80001406:	00878713          	addi	a4,a5,8
    8000140a:	f8e43023          	sd	a4,-128(s0)
    8000140e:	439c                	lw	a5,0(a5)
    80001410:	fcf43c23          	sd	a5,-40(s0)
    80001414:	fd843783          	ld	a5,-40(s0)
    80001418:	0007dc63          	bgez	a5,80001430 <_printf_+0x1b8>
    8000141c:	02d00513          	li	a0,45
    80001420:	2da000ef          	jal	ra,800016fa <putchar>
    80001424:	fd843783          	ld	a5,-40(s0)
    80001428:	40f007b3          	neg	a5,a5
    8000142c:	fcf43c23          	sd	a5,-40(s0)
    80001430:	fbc42783          	lw	a5,-68(s0)
    80001434:	85be                	mv	a1,a5
    80001436:	fd843503          	ld	a0,-40(s0)
    8000143a:	d69ff0ef          	jal	ra,800011a2 <itoa>
    8000143e:	a2f9                	j	8000160c <_printf_+0x394>
    80001440:	f8043783          	ld	a5,-128(s0)
    80001444:	00878713          	addi	a4,a5,8
    80001448:	f8e43023          	sd	a4,-128(s0)
    8000144c:	639c                	ld	a5,0(a5)
    8000144e:	853e                	mv	a0,a5
    80001450:	1a5020ef          	jal	ra,80003df4 <__truncdfsf2>
    80001454:	87aa                	mv	a5,a0
    80001456:	fcf42423          	sw	a5,-56(s0)
    8000145a:	f9840793          	addi	a5,s0,-104
    8000145e:	4619                	li	a2,6
    80001460:	85be                	mv	a1,a5
    80001462:	fc842503          	lw	a0,-56(s0)
    80001466:	ff8ff0ef          	jal	ra,80000c5e <ftoa>
    8000146a:	fc042823          	sw	zero,-48(s0)
    8000146e:	a805                	j	8000149e <_printf_+0x226>
    80001470:	fd042783          	lw	a5,-48(s0)
    80001474:	fe040713          	addi	a4,s0,-32
    80001478:	97ba                	add	a5,a5,a4
    8000147a:	fb87c783          	lbu	a5,-72(a5)
    8000147e:	2781                	sext.w	a5,a5
    80001480:	853e                	mv	a0,a5
    80001482:	278000ef          	jal	ra,800016fa <putchar>
    80001486:	fd042783          	lw	a5,-48(s0)
    8000148a:	0007871b          	sext.w	a4,a5
    8000148e:	47f5                	li	a5,29
    80001490:	02e7c063          	blt	a5,a4,800014b0 <_printf_+0x238>
    80001494:	fd042783          	lw	a5,-48(s0)
    80001498:	2785                	addiw	a5,a5,1
    8000149a:	fcf42823          	sw	a5,-48(s0)
    8000149e:	fd042783          	lw	a5,-48(s0)
    800014a2:	fe040713          	addi	a4,s0,-32
    800014a6:	97ba                	add	a5,a5,a4
    800014a8:	fb87c783          	lbu	a5,-72(a5)
    800014ac:	f3f1                	bnez	a5,80001470 <_printf_+0x1f8>
    800014ae:	aab9                	j	8000160c <_printf_+0x394>
    800014b0:	0001                	nop
    800014b2:	aaa9                	j	8000160c <_printf_+0x394>
    800014b4:	47a9                	li	a5,10
    800014b6:	faf42e23          	sw	a5,-68(s0)
    800014ba:	fd442783          	lw	a5,-44(s0)
    800014be:	0007871b          	sext.w	a4,a5
    800014c2:	4785                	li	a5,1
    800014c4:	00e7dc63          	bge	a5,a4,800014dc <_printf_+0x264>
    800014c8:	f8043783          	ld	a5,-128(s0)
    800014cc:	00878713          	addi	a4,a5,8
    800014d0:	f8e43023          	sd	a4,-128(s0)
    800014d4:	639c                	ld	a5,0(a5)
    800014d6:	fcf43c23          	sd	a5,-40(s0)
    800014da:	a815                	j	8000150e <_printf_+0x296>
    800014dc:	fd442783          	lw	a5,-44(s0)
    800014e0:	2781                	sext.w	a5,a5
    800014e2:	cb99                	beqz	a5,800014f8 <_printf_+0x280>
    800014e4:	f8043783          	ld	a5,-128(s0)
    800014e8:	00878713          	addi	a4,a5,8
    800014ec:	f8e43023          	sd	a4,-128(s0)
    800014f0:	639c                	ld	a5,0(a5)
    800014f2:	fcf43c23          	sd	a5,-40(s0)
    800014f6:	a821                	j	8000150e <_printf_+0x296>
    800014f8:	f8043783          	ld	a5,-128(s0)
    800014fc:	00878713          	addi	a4,a5,8
    80001500:	f8e43023          	sd	a4,-128(s0)
    80001504:	439c                	lw	a5,0(a5)
    80001506:	1782                	slli	a5,a5,0x20
    80001508:	9381                	srli	a5,a5,0x20
    8000150a:	fcf43c23          	sd	a5,-40(s0)
    8000150e:	fbc42783          	lw	a5,-68(s0)
    80001512:	85be                	mv	a1,a5
    80001514:	fd843503          	ld	a0,-40(s0)
    80001518:	c8bff0ef          	jal	ra,800011a2 <itoa>
    8000151c:	a8c5                	j	8000160c <_printf_+0x394>
    8000151e:	47a1                	li	a5,8
    80001520:	faf42e23          	sw	a5,-68(s0)
    80001524:	fd442783          	lw	a5,-44(s0)
    80001528:	0007871b          	sext.w	a4,a5
    8000152c:	4785                	li	a5,1
    8000152e:	00e7dc63          	bge	a5,a4,80001546 <_printf_+0x2ce>
    80001532:	f8043783          	ld	a5,-128(s0)
    80001536:	00878713          	addi	a4,a5,8
    8000153a:	f8e43023          	sd	a4,-128(s0)
    8000153e:	639c                	ld	a5,0(a5)
    80001540:	fcf43c23          	sd	a5,-40(s0)
    80001544:	a815                	j	80001578 <_printf_+0x300>
    80001546:	fd442783          	lw	a5,-44(s0)
    8000154a:	2781                	sext.w	a5,a5
    8000154c:	cb99                	beqz	a5,80001562 <_printf_+0x2ea>
    8000154e:	f8043783          	ld	a5,-128(s0)
    80001552:	00878713          	addi	a4,a5,8
    80001556:	f8e43023          	sd	a4,-128(s0)
    8000155a:	639c                	ld	a5,0(a5)
    8000155c:	fcf43c23          	sd	a5,-40(s0)
    80001560:	a821                	j	80001578 <_printf_+0x300>
    80001562:	f8043783          	ld	a5,-128(s0)
    80001566:	00878713          	addi	a4,a5,8
    8000156a:	f8e43023          	sd	a4,-128(s0)
    8000156e:	439c                	lw	a5,0(a5)
    80001570:	1782                	slli	a5,a5,0x20
    80001572:	9381                	srli	a5,a5,0x20
    80001574:	fcf43c23          	sd	a5,-40(s0)
    80001578:	fbc42783          	lw	a5,-68(s0)
    8000157c:	85be                	mv	a1,a5
    8000157e:	fd843503          	ld	a0,-40(s0)
    80001582:	c21ff0ef          	jal	ra,800011a2 <itoa>
    80001586:	a059                	j	8000160c <_printf_+0x394>
    80001588:	47c1                	li	a5,16
    8000158a:	faf42e23          	sw	a5,-68(s0)
    8000158e:	fd442783          	lw	a5,-44(s0)
    80001592:	0007871b          	sext.w	a4,a5
    80001596:	4785                	li	a5,1
    80001598:	00e7dc63          	bge	a5,a4,800015b0 <_printf_+0x338>
    8000159c:	f8043783          	ld	a5,-128(s0)
    800015a0:	00878713          	addi	a4,a5,8
    800015a4:	f8e43023          	sd	a4,-128(s0)
    800015a8:	639c                	ld	a5,0(a5)
    800015aa:	fcf43c23          	sd	a5,-40(s0)
    800015ae:	a815                	j	800015e2 <_printf_+0x36a>
    800015b0:	fd442783          	lw	a5,-44(s0)
    800015b4:	2781                	sext.w	a5,a5
    800015b6:	cb99                	beqz	a5,800015cc <_printf_+0x354>
    800015b8:	f8043783          	ld	a5,-128(s0)
    800015bc:	00878713          	addi	a4,a5,8
    800015c0:	f8e43023          	sd	a4,-128(s0)
    800015c4:	639c                	ld	a5,0(a5)
    800015c6:	fcf43c23          	sd	a5,-40(s0)
    800015ca:	a821                	j	800015e2 <_printf_+0x36a>
    800015cc:	f8043783          	ld	a5,-128(s0)
    800015d0:	00878713          	addi	a4,a5,8
    800015d4:	f8e43023          	sd	a4,-128(s0)
    800015d8:	439c                	lw	a5,0(a5)
    800015da:	1782                	slli	a5,a5,0x20
    800015dc:	9381                	srli	a5,a5,0x20
    800015de:	fcf43c23          	sd	a5,-40(s0)
    800015e2:	fbc42783          	lw	a5,-68(s0)
    800015e6:	85be                	mv	a1,a5
    800015e8:	fd843503          	ld	a0,-40(s0)
    800015ec:	bb7ff0ef          	jal	ra,800011a2 <itoa>
    800015f0:	a831                	j	8000160c <_printf_+0x394>
    800015f2:	8526                	mv	a0,s1
    800015f4:	106000ef          	jal	ra,800016fa <putchar>
    800015f8:	a811                	j	8000160c <_printf_+0x394>
    800015fa:	02500513          	li	a0,37
    800015fe:	0fc000ef          	jal	ra,800016fa <putchar>
    80001602:	fc043783          	ld	a5,-64(s0)
    80001606:	f8f43423          	sd	a5,-120(s0)
    8000160a:	0001                	nop
    8000160c:	fcc42783          	lw	a5,-52(s0)
    80001610:	2781                	sext.w	a5,a5
    80001612:	c781                	beqz	a5,8000161a <_printf_+0x3a2>
    80001614:	fc042623          	sw	zero,-52(s0)
    80001618:	b9d9                	j	800012ee <_printf_+0x76>
    8000161a:	0001                	nop
    8000161c:	b14d                	j	800012be <_printf_+0x46>
    8000161e:	0001                	nop
    80001620:	70e6                	ld	ra,120(sp)
    80001622:	7446                	ld	s0,112(sp)
    80001624:	74a6                	ld	s1,104(sp)
    80001626:	7906                	ld	s2,96(sp)
    80001628:	6109                	addi	sp,sp,128
    8000162a:	8082                	ret

000000008000162c <printf>:
    8000162c:	7159                	addi	sp,sp,-112
    8000162e:	f406                	sd	ra,40(sp)
    80001630:	f022                	sd	s0,32(sp)
    80001632:	1800                	addi	s0,sp,48
    80001634:	fca43c23          	sd	a0,-40(s0)
    80001638:	e40c                	sd	a1,8(s0)
    8000163a:	e810                	sd	a2,16(s0)
    8000163c:	ec14                	sd	a3,24(s0)
    8000163e:	f018                	sd	a4,32(s0)
    80001640:	f41c                	sd	a5,40(s0)
    80001642:	03043823          	sd	a6,48(s0)
    80001646:	03143c23          	sd	a7,56(s0)
    8000164a:	04040793          	addi	a5,s0,64
    8000164e:	fcf43823          	sd	a5,-48(s0)
    80001652:	fd043783          	ld	a5,-48(s0)
    80001656:	fc878793          	addi	a5,a5,-56
    8000165a:	fef43423          	sd	a5,-24(s0)
    8000165e:	fe843783          	ld	a5,-24(s0)
    80001662:	85be                	mv	a1,a5
    80001664:	fd843503          	ld	a0,-40(s0)
    80001668:	c11ff0ef          	jal	ra,80001278 <_printf_>
    8000166c:	4781                	li	a5,0
    8000166e:	853e                	mv	a0,a5
    80001670:	70a2                	ld	ra,40(sp)
    80001672:	7402                	ld	s0,32(sp)
    80001674:	6165                	addi	sp,sp,112
    80001676:	8082                	ret

0000000080001678 <uart_init>:
    80001678:	1101                	addi	sp,sp,-32
    8000167a:	ec22                	sd	s0,24(sp)
    8000167c:	1000                	addi	s0,sp,32
    8000167e:	fe042623          	sw	zero,-20(s0)
    80001682:	a805                	j	800016b2 <uart_init+0x3a>
    80001684:	fec42783          	lw	a5,-20(s0)
    80001688:	1137879b          	addiw	a5,a5,275
    8000168c:	2781                	sext.w	a5,a5
    8000168e:	0087979b          	slliw	a5,a5,0x8
    80001692:	2781                	sext.w	a5,a5
    80001694:	86be                	mv	a3,a5
    80001696:	00013717          	auipc	a4,0x13
    8000169a:	01a70713          	addi	a4,a4,26 # 800146b0 <uart_instance>
    8000169e:	fec42783          	lw	a5,-20(s0)
    800016a2:	078e                	slli	a5,a5,0x3
    800016a4:	97ba                	add	a5,a5,a4
    800016a6:	e394                	sd	a3,0(a5)
    800016a8:	fec42783          	lw	a5,-20(s0)
    800016ac:	2785                	addiw	a5,a5,1
    800016ae:	fef42623          	sw	a5,-20(s0)
    800016b2:	fec42783          	lw	a5,-20(s0)
    800016b6:	2781                	sext.w	a5,a5
    800016b8:	fcf056e3          	blez	a5,80001684 <uart_init+0xc>
    800016bc:	0001                	nop
    800016be:	0001                	nop
    800016c0:	6462                	ld	s0,24(sp)
    800016c2:	6105                	addi	sp,sp,32
    800016c4:	8082                	ret

00000000800016c6 <getchar>:
    800016c6:	1141                	addi	sp,sp,-16
    800016c8:	e422                	sd	s0,8(sp)
    800016ca:	0800                	addi	s0,sp,16
    800016cc:	0001                	nop
    800016ce:	00013797          	auipc	a5,0x13
    800016d2:	fe278793          	addi	a5,a5,-30 # 800146b0 <uart_instance>
    800016d6:	639c                	ld	a5,0(a5)
    800016d8:	00c7c783          	lbu	a5,12(a5)
    800016dc:	2781                	sext.w	a5,a5
    800016de:	8b91                	andi	a5,a5,4
    800016e0:	2781                	sext.w	a5,a5
    800016e2:	d7f5                	beqz	a5,800016ce <getchar+0x8>
    800016e4:	00013797          	auipc	a5,0x13
    800016e8:	fcc78793          	addi	a5,a5,-52 # 800146b0 <uart_instance>
    800016ec:	639c                	ld	a5,0(a5)
    800016ee:	479c                	lw	a5,8(a5)
    800016f0:	2781                	sext.w	a5,a5
    800016f2:	853e                	mv	a0,a5
    800016f4:	6422                	ld	s0,8(sp)
    800016f6:	0141                	addi	sp,sp,16
    800016f8:	8082                	ret

00000000800016fa <putchar>:
    800016fa:	1101                	addi	sp,sp,-32
    800016fc:	ec22                	sd	s0,24(sp)
    800016fe:	1000                	addi	s0,sp,32
    80001700:	87aa                	mv	a5,a0
    80001702:	fef42623          	sw	a5,-20(s0)
    80001706:	0001                	nop
    80001708:	00013797          	auipc	a5,0x13
    8000170c:	fa878793          	addi	a5,a5,-88 # 800146b0 <uart_instance>
    80001710:	639c                	ld	a5,0(a5)
    80001712:	00c7c783          	lbu	a5,12(a5)
    80001716:	2781                	sext.w	a5,a5
    80001718:	8b89                	andi	a5,a5,2
    8000171a:	2781                	sext.w	a5,a5
    8000171c:	f7f5                	bnez	a5,80001708 <putchar+0xe>
    8000171e:	00013797          	auipc	a5,0x13
    80001722:	f9278793          	addi	a5,a5,-110 # 800146b0 <uart_instance>
    80001726:	639c                	ld	a5,0(a5)
    80001728:	fec42703          	lw	a4,-20(s0)
    8000172c:	c3d8                	sw	a4,4(a5)
    8000172e:	4781                	li	a5,0
    80001730:	853e                	mv	a0,a5
    80001732:	6462                	ld	s0,24(sp)
    80001734:	6105                	addi	sp,sp,32
    80001736:	8082                	ret

0000000080001738 <set_baud_rate>:
    80001738:	7179                	addi	sp,sp,-48
    8000173a:	f422                	sd	s0,40(sp)
    8000173c:	1800                	addi	s0,sp,48
    8000173e:	fca43c23          	sd	a0,-40(s0)
    80001742:	87ae                	mv	a5,a1
    80001744:	fcf42a23          	sw	a5,-44(s0)
    80001748:	fe042623          	sw	zero,-20(s0)
    8000174c:	fd442783          	lw	a5,-44(s0)
    80001750:	0047979b          	slliw	a5,a5,0x4
    80001754:	2781                	sext.w	a5,a5
    80001756:	01313737          	lui	a4,0x1313
    8000175a:	d007071b          	addiw	a4,a4,-768
    8000175e:	02f757bb          	divuw	a5,a4,a5
    80001762:	fef42623          	sw	a5,-20(s0)
    80001766:	fec42783          	lw	a5,-20(s0)
    8000176a:	03079713          	slli	a4,a5,0x30
    8000176e:	9341                	srli	a4,a4,0x30
    80001770:	fd843783          	ld	a5,-40(s0)
    80001774:	00e79023          	sh	a4,0(a5)
    80001778:	0001                	nop
    8000177a:	7422                	ld	s0,40(sp)
    8000177c:	6145                	addi	sp,sp,48
    8000177e:	8082                	ret

0000000080001780 <enable_uart_interrupts>:
    80001780:	1101                	addi	sp,sp,-32
    80001782:	ec22                	sd	s0,24(sp)
    80001784:	1000                	addi	s0,sp,32
    80001786:	fea43423          	sd	a0,-24(s0)
    8000178a:	87ae                	mv	a5,a1
    8000178c:	fef403a3          	sb	a5,-25(s0)
    80001790:	fe843783          	ld	a5,-24(s0)
    80001794:	fe744703          	lbu	a4,-25(s0)
    80001798:	00e78c23          	sb	a4,24(a5)
    8000179c:	0001                	nop
    8000179e:	6462                	ld	s0,24(sp)
    800017a0:	6105                	addi	sp,sp,32
    800017a2:	8082                	ret

00000000800017a4 <set_uart_rx_threshold>:
    800017a4:	1101                	addi	sp,sp,-32
    800017a6:	ec22                	sd	s0,24(sp)
    800017a8:	1000                	addi	s0,sp,32
    800017aa:	fea43423          	sd	a0,-24(s0)
    800017ae:	87ae                	mv	a5,a1
    800017b0:	fef403a3          	sb	a5,-25(s0)
    800017b4:	fe843783          	ld	a5,-24(s0)
    800017b8:	fe744703          	lbu	a4,-25(s0)
    800017bc:	02e78023          	sb	a4,32(a5)
    800017c0:	0001                	nop
    800017c2:	6462                	ld	s0,24(sp)
    800017c4:	6105                	addi	sp,sp,32
    800017c6:	8082                	ret

00000000800017c8 <write_uart_character>:
    800017c8:	1101                	addi	sp,sp,-32
    800017ca:	ec22                	sd	s0,24(sp)
    800017cc:	1000                	addi	s0,sp,32
    800017ce:	fea43423          	sd	a0,-24(s0)
    800017d2:	87ae                	mv	a5,a1
    800017d4:	fef403a3          	sb	a5,-25(s0)
    800017d8:	0001                	nop
    800017da:	fe843783          	ld	a5,-24(s0)
    800017de:	00c7c783          	lbu	a5,12(a5)
    800017e2:	2781                	sext.w	a5,a5
    800017e4:	8b89                	andi	a5,a5,2
    800017e6:	2781                	sext.w	a5,a5
    800017e8:	fbed                	bnez	a5,800017da <write_uart_character+0x12>
    800017ea:	fe744783          	lbu	a5,-25(s0)
    800017ee:	0007871b          	sext.w	a4,a5
    800017f2:	fe843783          	ld	a5,-24(s0)
    800017f6:	c3d8                	sw	a4,4(a5)
    800017f8:	4781                	li	a5,0
    800017fa:	853e                	mv	a0,a5
    800017fc:	6462                	ld	s0,24(sp)
    800017fe:	6105                	addi	sp,sp,32
    80001800:	8082                	ret

0000000080001802 <write_uart_string>:
    80001802:	7179                	addi	sp,sp,-48
    80001804:	f406                	sd	ra,40(sp)
    80001806:	f022                	sd	s0,32(sp)
    80001808:	1800                	addi	s0,sp,48
    8000180a:	fca43c23          	sd	a0,-40(s0)
    8000180e:	fcb43823          	sd	a1,-48(s0)
    80001812:	fe042623          	sw	zero,-20(s0)
    80001816:	fec42783          	lw	a5,-20(s0)
    8000181a:	0017871b          	addiw	a4,a5,1
    8000181e:	fee42623          	sw	a4,-20(s0)
    80001822:	1782                	slli	a5,a5,0x20
    80001824:	9381                	srli	a5,a5,0x20
    80001826:	fd043703          	ld	a4,-48(s0)
    8000182a:	97ba                	add	a5,a5,a4
    8000182c:	0007c783          	lbu	a5,0(a5)
    80001830:	fef405a3          	sb	a5,-21(s0)
    80001834:	feb44783          	lbu	a5,-21(s0)
    80001838:	85be                	mv	a1,a5
    8000183a:	fd843503          	ld	a0,-40(s0)
    8000183e:	f8bff0ef          	jal	ra,800017c8 <write_uart_character>
    80001842:	feb44783          	lbu	a5,-21(s0)
    80001846:	0ff7f793          	andi	a5,a5,255
    8000184a:	f7f1                	bnez	a5,80001816 <write_uart_string+0x14>
    8000184c:	4781                	li	a5,0
    8000184e:	853e                	mv	a0,a5
    80001850:	70a2                	ld	ra,40(sp)
    80001852:	7402                	ld	s0,32(sp)
    80001854:	6145                	addi	sp,sp,48
    80001856:	8082                	ret

0000000080001858 <read_uart_character>:
    80001858:	7179                	addi	sp,sp,-48
    8000185a:	f422                	sd	s0,40(sp)
    8000185c:	1800                	addi	s0,sp,48
    8000185e:	fca43c23          	sd	a0,-40(s0)
    80001862:	fcb43823          	sd	a1,-48(s0)
    80001866:	fe0407a3          	sb	zero,-17(s0)
    8000186a:	0001                	nop
    8000186c:	fd843783          	ld	a5,-40(s0)
    80001870:	00c7c783          	lbu	a5,12(a5)
    80001874:	2781                	sext.w	a5,a5
    80001876:	8b91                	andi	a5,a5,4
    80001878:	2781                	sext.w	a5,a5
    8000187a:	dbed                	beqz	a5,8000186c <read_uart_character+0x14>
    8000187c:	fd843783          	ld	a5,-40(s0)
    80001880:	479c                	lw	a5,8(a5)
    80001882:	fef407a3          	sb	a5,-17(s0)
    80001886:	fd043783          	ld	a5,-48(s0)
    8000188a:	fef44703          	lbu	a4,-17(s0)
    8000188e:	00e78023          	sb	a4,0(a5)
    80001892:	4785                	li	a5,1
    80001894:	853e                	mv	a0,a5
    80001896:	7422                	ld	s0,40(sp)
    80001898:	6145                	addi	sp,sp,48
    8000189a:	8082                	ret

000000008000189c <read_uart_string>:
    8000189c:	7179                	addi	sp,sp,-48
    8000189e:	f406                	sd	ra,40(sp)
    800018a0:	f022                	sd	s0,32(sp)
    800018a2:	1800                	addi	s0,sp,48
    800018a4:	fca43c23          	sd	a0,-40(s0)
    800018a8:	fcb43823          	sd	a1,-48(s0)
    800018ac:	fe042623          	sw	zero,-20(s0)
    800018b0:	fe0405a3          	sb	zero,-21(s0)
    800018b4:	0001                	nop
    800018b6:	fd843783          	ld	a5,-40(s0)
    800018ba:	00c7c783          	lbu	a5,12(a5)
    800018be:	2781                	sext.w	a5,a5
    800018c0:	8b91                	andi	a5,a5,4
    800018c2:	2781                	sext.w	a5,a5
    800018c4:	dbed                	beqz	a5,800018b6 <read_uart_string+0x1a>
    800018c6:	fd843783          	ld	a5,-40(s0)
    800018ca:	479c                	lw	a5,8(a5)
    800018cc:	fef405a3          	sb	a5,-21(s0)
    800018d0:	fec42783          	lw	a5,-20(s0)
    800018d4:	0017871b          	addiw	a4,a5,1
    800018d8:	fee42623          	sw	a4,-20(s0)
    800018dc:	1782                	slli	a5,a5,0x20
    800018de:	9381                	srli	a5,a5,0x20
    800018e0:	fd043703          	ld	a4,-48(s0)
    800018e4:	97ba                	add	a5,a5,a4
    800018e6:	feb44703          	lbu	a4,-21(s0)
    800018ea:	00e78023          	sb	a4,0(a5)
    800018ee:	feb44783          	lbu	a5,-21(s0)
    800018f2:	2781                	sext.w	a5,a5
    800018f4:	853e                	mv	a0,a5
    800018f6:	e05ff0ef          	jal	ra,800016fa <putchar>
    800018fa:	feb44783          	lbu	a5,-21(s0)
    800018fe:	0ff7f713          	andi	a4,a5,255
    80001902:	47b5                	li	a5,13
    80001904:	faf718e3          	bne	a4,a5,800018b4 <read_uart_string+0x18>
    80001908:	fec42783          	lw	a5,-20(s0)
    8000190c:	0017871b          	addiw	a4,a5,1
    80001910:	fee42623          	sw	a4,-20(s0)
    80001914:	1782                	slli	a5,a5,0x20
    80001916:	9381                	srli	a5,a5,0x20
    80001918:	fd043703          	ld	a4,-48(s0)
    8000191c:	97ba                	add	a5,a5,a4
    8000191e:	4729                	li	a4,10
    80001920:	00e78023          	sb	a4,0(a5)
    80001924:	fec42783          	lw	a5,-20(s0)
    80001928:	0017871b          	addiw	a4,a5,1
    8000192c:	fee42623          	sw	a4,-20(s0)
    80001930:	1782                	slli	a5,a5,0x20
    80001932:	9381                	srli	a5,a5,0x20
    80001934:	fd043703          	ld	a4,-48(s0)
    80001938:	97ba                	add	a5,a5,a4
    8000193a:	00078023          	sb	zero,0(a5)
    8000193e:	fec42783          	lw	a5,-20(s0)
    80001942:	0ff7f793          	andi	a5,a5,255
    80001946:	853e                	mv	a0,a5
    80001948:	70a2                	ld	ra,40(sp)
    8000194a:	7402                	ld	s0,32(sp)
    8000194c:	6145                	addi	sp,sp,48
    8000194e:	8082                	ret

0000000080001950 <flush_uart>:
    80001950:	7179                	addi	sp,sp,-48
    80001952:	f422                	sd	s0,40(sp)
    80001954:	1800                	addi	s0,sp,48
    80001956:	fca43c23          	sd	a0,-40(s0)
    8000195a:	a031                	j	80001966 <flush_uart+0x16>
    8000195c:	fd843783          	ld	a5,-40(s0)
    80001960:	479c                	lw	a5,8(a5)
    80001962:	fef407a3          	sb	a5,-17(s0)
    80001966:	fd843783          	ld	a5,-40(s0)
    8000196a:	00c7c783          	lbu	a5,12(a5)
    8000196e:	2781                	sext.w	a5,a5
    80001970:	8b91                	andi	a5,a5,4
    80001972:	2781                	sext.w	a5,a5
    80001974:	f7e5                	bnez	a5,8000195c <flush_uart+0xc>
    80001976:	0001                	nop
    80001978:	0001                	nop
    8000197a:	7422                	ld	s0,40(sp)
    8000197c:	6145                	addi	sp,sp,48
    8000197e:	8082                	ret

0000000080001980 <uart0_isr>:
    80001980:	1101                	addi	sp,sp,-32
    80001982:	ec06                	sd	ra,24(sp)
    80001984:	e822                	sd	s0,16(sp)
    80001986:	1000                	addi	s0,sp,32
    80001988:	fe042623          	sw	zero,-20(s0)
    8000198c:	00013797          	auipc	a5,0x13
    80001990:	d2478793          	addi	a5,a5,-732 # 800146b0 <uart_instance>
    80001994:	639c                	ld	a5,0(a5)
    80001996:	00c7c783          	lbu	a5,12(a5)
    8000199a:	2781                	sext.w	a5,a5
    8000199c:	1007f793          	andi	a5,a5,256
    800019a0:	2781                	sext.w	a5,a5
    800019a2:	cbbd                	beqz	a5,80001a18 <uart0_isr+0x98>
    800019a4:	a8b1                	j	80001a00 <uart0_isr+0x80>
    800019a6:	00013797          	auipc	a5,0x13
    800019aa:	d0a78793          	addi	a5,a5,-758 # 800146b0 <uart_instance>
    800019ae:	639c                	ld	a5,0(a5)
    800019b0:	479c                	lw	a5,8(a5)
    800019b2:	fef42623          	sw	a5,-20(s0)
    800019b6:	89818793          	addi	a5,gp,-1896 # 80005060 <uart0_rcv_isr_count>
    800019ba:	439c                	lw	a5,0(a5)
    800019bc:	2781                	sext.w	a5,a5
    800019be:	0017871b          	addiw	a4,a5,1
    800019c2:	0007069b          	sext.w	a3,a4
    800019c6:	89818713          	addi	a4,gp,-1896 # 80005060 <uart0_rcv_isr_count>
    800019ca:	c314                	sw	a3,0(a4)
    800019cc:	fec42703          	lw	a4,-20(s0)
    800019d0:	0ff77713          	andi	a4,a4,255
    800019d4:	0000b697          	auipc	a3,0xb
    800019d8:	6ac68693          	addi	a3,a3,1708 # 8000d080 <u0_rcv_char>
    800019dc:	1782                	slli	a5,a5,0x20
    800019de:	9381                	srli	a5,a5,0x20
    800019e0:	97b6                	add	a5,a5,a3
    800019e2:	00e78023          	sb	a4,0(a5)
    800019e6:	00013797          	auipc	a5,0x13
    800019ea:	cca78793          	addi	a5,a5,-822 # 800146b0 <uart_instance>
    800019ee:	639c                	ld	a5,0(a5)
    800019f0:	fec42703          	lw	a4,-20(s0)
    800019f4:	0ff77713          	andi	a4,a4,255
    800019f8:	85ba                	mv	a1,a4
    800019fa:	853e                	mv	a0,a5
    800019fc:	dcdff0ef          	jal	ra,800017c8 <write_uart_character>
    80001a00:	00013797          	auipc	a5,0x13
    80001a04:	cb078793          	addi	a5,a5,-848 # 800146b0 <uart_instance>
    80001a08:	639c                	ld	a5,0(a5)
    80001a0a:	00c7c783          	lbu	a5,12(a5)
    80001a0e:	2781                	sext.w	a5,a5
    80001a10:	8b91                	andi	a5,a5,4
    80001a12:	2781                	sext.w	a5,a5
    80001a14:	fbc9                	bnez	a5,800019a6 <uart0_isr+0x26>
    80001a16:	a291                	j	80001b5a <uart0_isr+0x1da>
    80001a18:	00013797          	auipc	a5,0x13
    80001a1c:	c9878793          	addi	a5,a5,-872 # 800146b0 <uart_instance>
    80001a20:	639c                	ld	a5,0(a5)
    80001a22:	00c7c783          	lbu	a5,12(a5)
    80001a26:	2781                	sext.w	a5,a5
    80001a28:	8ba1                	andi	a5,a5,8
    80001a2a:	2781                	sext.w	a5,a5
    80001a2c:	cfdd                	beqz	a5,80001aea <uart0_isr+0x16a>
    80001a2e:	45c1                	li	a1,16
    80001a30:	020d0537          	lui	a0,0x20d0
    80001a34:	c66ff0ef          	jal	ra,80000e9a <write_word>
    80001a38:	020d07b7          	lui	a5,0x20d0
    80001a3c:	00878513          	addi	a0,a5,8 # 20d0008 <_tbss_end+0x20d0008>
    80001a40:	c22ff0ef          	jal	ra,80000e62 <read_word>
    80001a44:	87aa                	mv	a5,a0
    80001a46:	0107e793          	ori	a5,a5,16
    80001a4a:	85be                	mv	a1,a5
    80001a4c:	020d07b7          	lui	a5,0x20d0
    80001a50:	00878513          	addi	a0,a5,8 # 20d0008 <_tbss_end+0x20d0008>
    80001a54:	c46ff0ef          	jal	ra,80000e9a <write_word>
    80001a58:	a8b1                	j	80001ab4 <uart0_isr+0x134>
    80001a5a:	00013797          	auipc	a5,0x13
    80001a5e:	c5678793          	addi	a5,a5,-938 # 800146b0 <uart_instance>
    80001a62:	639c                	ld	a5,0(a5)
    80001a64:	479c                	lw	a5,8(a5)
    80001a66:	fef42623          	sw	a5,-20(s0)
    80001a6a:	89818793          	addi	a5,gp,-1896 # 80005060 <uart0_rcv_isr_count>
    80001a6e:	439c                	lw	a5,0(a5)
    80001a70:	2781                	sext.w	a5,a5
    80001a72:	0017871b          	addiw	a4,a5,1
    80001a76:	0007069b          	sext.w	a3,a4
    80001a7a:	89818713          	addi	a4,gp,-1896 # 80005060 <uart0_rcv_isr_count>
    80001a7e:	c314                	sw	a3,0(a4)
    80001a80:	fec42703          	lw	a4,-20(s0)
    80001a84:	0ff77713          	andi	a4,a4,255
    80001a88:	0000b697          	auipc	a3,0xb
    80001a8c:	5f868693          	addi	a3,a3,1528 # 8000d080 <u0_rcv_char>
    80001a90:	1782                	slli	a5,a5,0x20
    80001a92:	9381                	srli	a5,a5,0x20
    80001a94:	97b6                	add	a5,a5,a3
    80001a96:	00e78023          	sb	a4,0(a5)
    80001a9a:	00013797          	auipc	a5,0x13
    80001a9e:	c1678793          	addi	a5,a5,-1002 # 800146b0 <uart_instance>
    80001aa2:	639c                	ld	a5,0(a5)
    80001aa4:	fec42703          	lw	a4,-20(s0)
    80001aa8:	0ff77713          	andi	a4,a4,255
    80001aac:	85ba                	mv	a1,a4
    80001aae:	853e                	mv	a0,a5
    80001ab0:	d19ff0ef          	jal	ra,800017c8 <write_uart_character>
    80001ab4:	00013797          	auipc	a5,0x13
    80001ab8:	bfc78793          	addi	a5,a5,-1028 # 800146b0 <uart_instance>
    80001abc:	639c                	ld	a5,0(a5)
    80001abe:	00c7c783          	lbu	a5,12(a5)
    80001ac2:	2781                	sext.w	a5,a5
    80001ac4:	8b91                	andi	a5,a5,4
    80001ac6:	2781                	sext.w	a5,a5
    80001ac8:	fbc9                	bnez	a5,80001a5a <uart0_isr+0xda>
    80001aca:	020d07b7          	lui	a5,0x20d0
    80001ace:	00878513          	addi	a0,a5,8 # 20d0008 <_tbss_end+0x20d0008>
    80001ad2:	b90ff0ef          	jal	ra,80000e62 <read_word>
    80001ad6:	87aa                	mv	a5,a0
    80001ad8:	9bbd                	andi	a5,a5,-17
    80001ada:	85be                	mv	a1,a5
    80001adc:	020d07b7          	lui	a5,0x20d0
    80001ae0:	00878513          	addi	a0,a5,8 # 20d0008 <_tbss_end+0x20d0008>
    80001ae4:	bb6ff0ef          	jal	ra,80000e9a <write_word>
    80001ae8:	a88d                	j	80001b5a <uart0_isr+0x1da>
    80001aea:	00013797          	auipc	a5,0x13
    80001aee:	bc678793          	addi	a5,a5,-1082 # 800146b0 <uart_instance>
    80001af2:	639c                	ld	a5,0(a5)
    80001af4:	00c7c783          	lbu	a5,12(a5)
    80001af8:	2781                	sext.w	a5,a5
    80001afa:	8b91                	andi	a5,a5,4
    80001afc:	2781                	sext.w	a5,a5
    80001afe:	cfb1                	beqz	a5,80001b5a <uart0_isr+0x1da>
    80001b00:	00013797          	auipc	a5,0x13
    80001b04:	bb078793          	addi	a5,a5,-1104 # 800146b0 <uart_instance>
    80001b08:	639c                	ld	a5,0(a5)
    80001b0a:	479c                	lw	a5,8(a5)
    80001b0c:	fef42623          	sw	a5,-20(s0)
    80001b10:	89818793          	addi	a5,gp,-1896 # 80005060 <uart0_rcv_isr_count>
    80001b14:	439c                	lw	a5,0(a5)
    80001b16:	2781                	sext.w	a5,a5
    80001b18:	0017871b          	addiw	a4,a5,1
    80001b1c:	0007069b          	sext.w	a3,a4
    80001b20:	89818713          	addi	a4,gp,-1896 # 80005060 <uart0_rcv_isr_count>
    80001b24:	c314                	sw	a3,0(a4)
    80001b26:	fec42703          	lw	a4,-20(s0)
    80001b2a:	0ff77713          	andi	a4,a4,255
    80001b2e:	0000b697          	auipc	a3,0xb
    80001b32:	55268693          	addi	a3,a3,1362 # 8000d080 <u0_rcv_char>
    80001b36:	1782                	slli	a5,a5,0x20
    80001b38:	9381                	srli	a5,a5,0x20
    80001b3a:	97b6                	add	a5,a5,a3
    80001b3c:	00e78023          	sb	a4,0(a5)
    80001b40:	00013797          	auipc	a5,0x13
    80001b44:	b7078793          	addi	a5,a5,-1168 # 800146b0 <uart_instance>
    80001b48:	639c                	ld	a5,0(a5)
    80001b4a:	fec42703          	lw	a4,-20(s0)
    80001b4e:	0ff77713          	andi	a4,a4,255
    80001b52:	85ba                	mv	a1,a4
    80001b54:	853e                	mv	a0,a5
    80001b56:	c73ff0ef          	jal	ra,800017c8 <write_uart_character>
    80001b5a:	4781                	li	a5,0
    80001b5c:	853e                	mv	a0,a5
    80001b5e:	60e2                	ld	ra,24(sp)
    80001b60:	6442                	ld	s0,16(sp)
    80001b62:	6105                	addi	sp,sp,32
    80001b64:	8082                	ret

0000000080001b66 <uart1_isr>:
    80001b66:	1101                	addi	sp,sp,-32
    80001b68:	ec06                	sd	ra,24(sp)
    80001b6a:	e822                	sd	s0,16(sp)
    80001b6c:	1000                	addi	s0,sp,32
    80001b6e:	fe042623          	sw	zero,-20(s0)
    80001b72:	00013797          	auipc	a5,0x13
    80001b76:	b3e78793          	addi	a5,a5,-1218 # 800146b0 <uart_instance>
    80001b7a:	679c                	ld	a5,8(a5)
    80001b7c:	00c7c783          	lbu	a5,12(a5)
    80001b80:	2781                	sext.w	a5,a5
    80001b82:	1007f793          	andi	a5,a5,256
    80001b86:	2781                	sext.w	a5,a5
    80001b88:	cbbd                	beqz	a5,80001bfe <uart1_isr+0x98>
    80001b8a:	a8b1                	j	80001be6 <uart1_isr+0x80>
    80001b8c:	00013797          	auipc	a5,0x13
    80001b90:	b2478793          	addi	a5,a5,-1244 # 800146b0 <uart_instance>
    80001b94:	679c                	ld	a5,8(a5)
    80001b96:	479c                	lw	a5,8(a5)
    80001b98:	fef42623          	sw	a5,-20(s0)
    80001b9c:	8a018793          	addi	a5,gp,-1888 # 80005068 <uart1_rcv_isr_count>
    80001ba0:	439c                	lw	a5,0(a5)
    80001ba2:	2781                	sext.w	a5,a5
    80001ba4:	0017871b          	addiw	a4,a5,1
    80001ba8:	0007069b          	sext.w	a3,a4
    80001bac:	8a018713          	addi	a4,gp,-1888 # 80005068 <uart1_rcv_isr_count>
    80001bb0:	c314                	sw	a3,0(a4)
    80001bb2:	fec42703          	lw	a4,-20(s0)
    80001bb6:	0ff77713          	andi	a4,a4,255
    80001bba:	0000e697          	auipc	a3,0xe
    80001bbe:	bd668693          	addi	a3,a3,-1066 # 8000f790 <u1_rcv_char>
    80001bc2:	1782                	slli	a5,a5,0x20
    80001bc4:	9381                	srli	a5,a5,0x20
    80001bc6:	97b6                	add	a5,a5,a3
    80001bc8:	00e78023          	sb	a4,0(a5)
    80001bcc:	00013797          	auipc	a5,0x13
    80001bd0:	ae478793          	addi	a5,a5,-1308 # 800146b0 <uart_instance>
    80001bd4:	679c                	ld	a5,8(a5)
    80001bd6:	fec42703          	lw	a4,-20(s0)
    80001bda:	0ff77713          	andi	a4,a4,255
    80001bde:	85ba                	mv	a1,a4
    80001be0:	853e                	mv	a0,a5
    80001be2:	be7ff0ef          	jal	ra,800017c8 <write_uart_character>
    80001be6:	00013797          	auipc	a5,0x13
    80001bea:	aca78793          	addi	a5,a5,-1334 # 800146b0 <uart_instance>
    80001bee:	679c                	ld	a5,8(a5)
    80001bf0:	00c7c783          	lbu	a5,12(a5)
    80001bf4:	2781                	sext.w	a5,a5
    80001bf6:	8b91                	andi	a5,a5,4
    80001bf8:	2781                	sext.w	a5,a5
    80001bfa:	fbc9                	bnez	a5,80001b8c <uart1_isr+0x26>
    80001bfc:	a291                	j	80001d40 <uart1_isr+0x1da>
    80001bfe:	00013797          	auipc	a5,0x13
    80001c02:	ab278793          	addi	a5,a5,-1358 # 800146b0 <uart_instance>
    80001c06:	679c                	ld	a5,8(a5)
    80001c08:	00c7c783          	lbu	a5,12(a5)
    80001c0c:	2781                	sext.w	a5,a5
    80001c0e:	8ba1                	andi	a5,a5,8
    80001c10:	2781                	sext.w	a5,a5
    80001c12:	cfdd                	beqz	a5,80001cd0 <uart1_isr+0x16a>
    80001c14:	45c1                	li	a1,16
    80001c16:	020d0537          	lui	a0,0x20d0
    80001c1a:	a80ff0ef          	jal	ra,80000e9a <write_word>
    80001c1e:	020d07b7          	lui	a5,0x20d0
    80001c22:	00878513          	addi	a0,a5,8 # 20d0008 <_tbss_end+0x20d0008>
    80001c26:	a3cff0ef          	jal	ra,80000e62 <read_word>
    80001c2a:	87aa                	mv	a5,a0
    80001c2c:	0107e793          	ori	a5,a5,16
    80001c30:	85be                	mv	a1,a5
    80001c32:	020d07b7          	lui	a5,0x20d0
    80001c36:	00878513          	addi	a0,a5,8 # 20d0008 <_tbss_end+0x20d0008>
    80001c3a:	a60ff0ef          	jal	ra,80000e9a <write_word>
    80001c3e:	a8b1                	j	80001c9a <uart1_isr+0x134>
    80001c40:	00013797          	auipc	a5,0x13
    80001c44:	a7078793          	addi	a5,a5,-1424 # 800146b0 <uart_instance>
    80001c48:	679c                	ld	a5,8(a5)
    80001c4a:	479c                	lw	a5,8(a5)
    80001c4c:	fef42623          	sw	a5,-20(s0)
    80001c50:	8a018793          	addi	a5,gp,-1888 # 80005068 <uart1_rcv_isr_count>
    80001c54:	439c                	lw	a5,0(a5)
    80001c56:	2781                	sext.w	a5,a5
    80001c58:	0017871b          	addiw	a4,a5,1
    80001c5c:	0007069b          	sext.w	a3,a4
    80001c60:	8a018713          	addi	a4,gp,-1888 # 80005068 <uart1_rcv_isr_count>
    80001c64:	c314                	sw	a3,0(a4)
    80001c66:	fec42703          	lw	a4,-20(s0)
    80001c6a:	0ff77713          	andi	a4,a4,255
    80001c6e:	0000e697          	auipc	a3,0xe
    80001c72:	b2268693          	addi	a3,a3,-1246 # 8000f790 <u1_rcv_char>
    80001c76:	1782                	slli	a5,a5,0x20
    80001c78:	9381                	srli	a5,a5,0x20
    80001c7a:	97b6                	add	a5,a5,a3
    80001c7c:	00e78023          	sb	a4,0(a5)
    80001c80:	00013797          	auipc	a5,0x13
    80001c84:	a3078793          	addi	a5,a5,-1488 # 800146b0 <uart_instance>
    80001c88:	679c                	ld	a5,8(a5)
    80001c8a:	fec42703          	lw	a4,-20(s0)
    80001c8e:	0ff77713          	andi	a4,a4,255
    80001c92:	85ba                	mv	a1,a4
    80001c94:	853e                	mv	a0,a5
    80001c96:	b33ff0ef          	jal	ra,800017c8 <write_uart_character>
    80001c9a:	00013797          	auipc	a5,0x13
    80001c9e:	a1678793          	addi	a5,a5,-1514 # 800146b0 <uart_instance>
    80001ca2:	679c                	ld	a5,8(a5)
    80001ca4:	00c7c783          	lbu	a5,12(a5)
    80001ca8:	2781                	sext.w	a5,a5
    80001caa:	8b91                	andi	a5,a5,4
    80001cac:	2781                	sext.w	a5,a5
    80001cae:	fbc9                	bnez	a5,80001c40 <uart1_isr+0xda>
    80001cb0:	020d07b7          	lui	a5,0x20d0
    80001cb4:	00878513          	addi	a0,a5,8 # 20d0008 <_tbss_end+0x20d0008>
    80001cb8:	9aaff0ef          	jal	ra,80000e62 <read_word>
    80001cbc:	87aa                	mv	a5,a0
    80001cbe:	9bbd                	andi	a5,a5,-17
    80001cc0:	85be                	mv	a1,a5
    80001cc2:	020d07b7          	lui	a5,0x20d0
    80001cc6:	00878513          	addi	a0,a5,8 # 20d0008 <_tbss_end+0x20d0008>
    80001cca:	9d0ff0ef          	jal	ra,80000e9a <write_word>
    80001cce:	a88d                	j	80001d40 <uart1_isr+0x1da>
    80001cd0:	00013797          	auipc	a5,0x13
    80001cd4:	9e078793          	addi	a5,a5,-1568 # 800146b0 <uart_instance>
    80001cd8:	679c                	ld	a5,8(a5)
    80001cda:	00c7c783          	lbu	a5,12(a5)
    80001cde:	2781                	sext.w	a5,a5
    80001ce0:	8b91                	andi	a5,a5,4
    80001ce2:	2781                	sext.w	a5,a5
    80001ce4:	cfb1                	beqz	a5,80001d40 <uart1_isr+0x1da>
    80001ce6:	00013797          	auipc	a5,0x13
    80001cea:	9ca78793          	addi	a5,a5,-1590 # 800146b0 <uart_instance>
    80001cee:	679c                	ld	a5,8(a5)
    80001cf0:	479c                	lw	a5,8(a5)
    80001cf2:	fef42623          	sw	a5,-20(s0)
    80001cf6:	8a018793          	addi	a5,gp,-1888 # 80005068 <uart1_rcv_isr_count>
    80001cfa:	439c                	lw	a5,0(a5)
    80001cfc:	2781                	sext.w	a5,a5
    80001cfe:	0017871b          	addiw	a4,a5,1
    80001d02:	0007069b          	sext.w	a3,a4
    80001d06:	8a018713          	addi	a4,gp,-1888 # 80005068 <uart1_rcv_isr_count>
    80001d0a:	c314                	sw	a3,0(a4)
    80001d0c:	fec42703          	lw	a4,-20(s0)
    80001d10:	0ff77713          	andi	a4,a4,255
    80001d14:	0000e697          	auipc	a3,0xe
    80001d18:	a7c68693          	addi	a3,a3,-1412 # 8000f790 <u1_rcv_char>
    80001d1c:	1782                	slli	a5,a5,0x20
    80001d1e:	9381                	srli	a5,a5,0x20
    80001d20:	97b6                	add	a5,a5,a3
    80001d22:	00e78023          	sb	a4,0(a5)
    80001d26:	00013797          	auipc	a5,0x13
    80001d2a:	98a78793          	addi	a5,a5,-1654 # 800146b0 <uart_instance>
    80001d2e:	679c                	ld	a5,8(a5)
    80001d30:	fec42703          	lw	a4,-20(s0)
    80001d34:	0ff77713          	andi	a4,a4,255
    80001d38:	85ba                	mv	a1,a4
    80001d3a:	853e                	mv	a0,a5
    80001d3c:	a8dff0ef          	jal	ra,800017c8 <write_uart_character>
    80001d40:	4781                	li	a5,0
    80001d42:	853e                	mv	a0,a5
    80001d44:	60e2                	ld	ra,24(sp)
    80001d46:	6442                	ld	s0,16(sp)
    80001d48:	6105                	addi	sp,sp,32
    80001d4a:	8082                	ret

0000000080001d4c <uart2_isr>:
    80001d4c:	1101                	addi	sp,sp,-32
    80001d4e:	ec06                	sd	ra,24(sp)
    80001d50:	e822                	sd	s0,16(sp)
    80001d52:	1000                	addi	s0,sp,32
    80001d54:	fe042623          	sw	zero,-20(s0)
    80001d58:	00013797          	auipc	a5,0x13
    80001d5c:	95878793          	addi	a5,a5,-1704 # 800146b0 <uart_instance>
    80001d60:	6b9c                	ld	a5,16(a5)
    80001d62:	00c7c783          	lbu	a5,12(a5)
    80001d66:	2781                	sext.w	a5,a5
    80001d68:	1007f793          	andi	a5,a5,256
    80001d6c:	2781                	sext.w	a5,a5
    80001d6e:	cbbd                	beqz	a5,80001de4 <uart2_isr+0x98>
    80001d70:	a8b1                	j	80001dcc <uart2_isr+0x80>
    80001d72:	00013797          	auipc	a5,0x13
    80001d76:	93e78793          	addi	a5,a5,-1730 # 800146b0 <uart_instance>
    80001d7a:	6b9c                	ld	a5,16(a5)
    80001d7c:	479c                	lw	a5,8(a5)
    80001d7e:	fef42623          	sw	a5,-20(s0)
    80001d82:	8a818793          	addi	a5,gp,-1880 # 80005070 <uart2_rcv_isr_count>
    80001d86:	439c                	lw	a5,0(a5)
    80001d88:	2781                	sext.w	a5,a5
    80001d8a:	0017871b          	addiw	a4,a5,1
    80001d8e:	0007069b          	sext.w	a3,a4
    80001d92:	8a818713          	addi	a4,gp,-1880 # 80005070 <uart2_rcv_isr_count>
    80001d96:	c314                	sw	a3,0(a4)
    80001d98:	fec42703          	lw	a4,-20(s0)
    80001d9c:	0ff77713          	andi	a4,a4,255
    80001da0:	00010697          	auipc	a3,0x10
    80001da4:	10068693          	addi	a3,a3,256 # 80011ea0 <u2_rcv_char>
    80001da8:	1782                	slli	a5,a5,0x20
    80001daa:	9381                	srli	a5,a5,0x20
    80001dac:	97b6                	add	a5,a5,a3
    80001dae:	00e78023          	sb	a4,0(a5)
    80001db2:	00013797          	auipc	a5,0x13
    80001db6:	8fe78793          	addi	a5,a5,-1794 # 800146b0 <uart_instance>
    80001dba:	6b9c                	ld	a5,16(a5)
    80001dbc:	fec42703          	lw	a4,-20(s0)
    80001dc0:	0ff77713          	andi	a4,a4,255
    80001dc4:	85ba                	mv	a1,a4
    80001dc6:	853e                	mv	a0,a5
    80001dc8:	a01ff0ef          	jal	ra,800017c8 <write_uart_character>
    80001dcc:	00013797          	auipc	a5,0x13
    80001dd0:	8e478793          	addi	a5,a5,-1820 # 800146b0 <uart_instance>
    80001dd4:	6b9c                	ld	a5,16(a5)
    80001dd6:	00c7c783          	lbu	a5,12(a5)
    80001dda:	2781                	sext.w	a5,a5
    80001ddc:	8b91                	andi	a5,a5,4
    80001dde:	2781                	sext.w	a5,a5
    80001de0:	fbc9                	bnez	a5,80001d72 <uart2_isr+0x26>
    80001de2:	a291                	j	80001f26 <uart2_isr+0x1da>
    80001de4:	00013797          	auipc	a5,0x13
    80001de8:	8cc78793          	addi	a5,a5,-1844 # 800146b0 <uart_instance>
    80001dec:	6b9c                	ld	a5,16(a5)
    80001dee:	00c7c783          	lbu	a5,12(a5)
    80001df2:	2781                	sext.w	a5,a5
    80001df4:	8ba1                	andi	a5,a5,8
    80001df6:	2781                	sext.w	a5,a5
    80001df8:	cfdd                	beqz	a5,80001eb6 <uart2_isr+0x16a>
    80001dfa:	45c1                	li	a1,16
    80001dfc:	020d0537          	lui	a0,0x20d0
    80001e00:	89aff0ef          	jal	ra,80000e9a <write_word>
    80001e04:	020d07b7          	lui	a5,0x20d0
    80001e08:	00878513          	addi	a0,a5,8 # 20d0008 <_tbss_end+0x20d0008>
    80001e0c:	856ff0ef          	jal	ra,80000e62 <read_word>
    80001e10:	87aa                	mv	a5,a0
    80001e12:	0107e793          	ori	a5,a5,16
    80001e16:	85be                	mv	a1,a5
    80001e18:	020d07b7          	lui	a5,0x20d0
    80001e1c:	00878513          	addi	a0,a5,8 # 20d0008 <_tbss_end+0x20d0008>
    80001e20:	87aff0ef          	jal	ra,80000e9a <write_word>
    80001e24:	a8b1                	j	80001e80 <uart2_isr+0x134>
    80001e26:	00013797          	auipc	a5,0x13
    80001e2a:	88a78793          	addi	a5,a5,-1910 # 800146b0 <uart_instance>
    80001e2e:	6b9c                	ld	a5,16(a5)
    80001e30:	479c                	lw	a5,8(a5)
    80001e32:	fef42623          	sw	a5,-20(s0)
    80001e36:	8a818793          	addi	a5,gp,-1880 # 80005070 <uart2_rcv_isr_count>
    80001e3a:	439c                	lw	a5,0(a5)
    80001e3c:	2781                	sext.w	a5,a5
    80001e3e:	0017871b          	addiw	a4,a5,1
    80001e42:	0007069b          	sext.w	a3,a4
    80001e46:	8a818713          	addi	a4,gp,-1880 # 80005070 <uart2_rcv_isr_count>
    80001e4a:	c314                	sw	a3,0(a4)
    80001e4c:	fec42703          	lw	a4,-20(s0)
    80001e50:	0ff77713          	andi	a4,a4,255
    80001e54:	00010697          	auipc	a3,0x10
    80001e58:	04c68693          	addi	a3,a3,76 # 80011ea0 <u2_rcv_char>
    80001e5c:	1782                	slli	a5,a5,0x20
    80001e5e:	9381                	srli	a5,a5,0x20
    80001e60:	97b6                	add	a5,a5,a3
    80001e62:	00e78023          	sb	a4,0(a5)
    80001e66:	00013797          	auipc	a5,0x13
    80001e6a:	84a78793          	addi	a5,a5,-1974 # 800146b0 <uart_instance>
    80001e6e:	6b9c                	ld	a5,16(a5)
    80001e70:	fec42703          	lw	a4,-20(s0)
    80001e74:	0ff77713          	andi	a4,a4,255
    80001e78:	85ba                	mv	a1,a4
    80001e7a:	853e                	mv	a0,a5
    80001e7c:	94dff0ef          	jal	ra,800017c8 <write_uart_character>
    80001e80:	00013797          	auipc	a5,0x13
    80001e84:	83078793          	addi	a5,a5,-2000 # 800146b0 <uart_instance>
    80001e88:	6b9c                	ld	a5,16(a5)
    80001e8a:	00c7c783          	lbu	a5,12(a5)
    80001e8e:	2781                	sext.w	a5,a5
    80001e90:	8b91                	andi	a5,a5,4
    80001e92:	2781                	sext.w	a5,a5
    80001e94:	fbc9                	bnez	a5,80001e26 <uart2_isr+0xda>
    80001e96:	020d07b7          	lui	a5,0x20d0
    80001e9a:	00878513          	addi	a0,a5,8 # 20d0008 <_tbss_end+0x20d0008>
    80001e9e:	fc5fe0ef          	jal	ra,80000e62 <read_word>
    80001ea2:	87aa                	mv	a5,a0
    80001ea4:	9bbd                	andi	a5,a5,-17
    80001ea6:	85be                	mv	a1,a5
    80001ea8:	020d07b7          	lui	a5,0x20d0
    80001eac:	00878513          	addi	a0,a5,8 # 20d0008 <_tbss_end+0x20d0008>
    80001eb0:	febfe0ef          	jal	ra,80000e9a <write_word>
    80001eb4:	a88d                	j	80001f26 <uart2_isr+0x1da>
    80001eb6:	00012797          	auipc	a5,0x12
    80001eba:	7fa78793          	addi	a5,a5,2042 # 800146b0 <uart_instance>
    80001ebe:	6b9c                	ld	a5,16(a5)
    80001ec0:	00c7c783          	lbu	a5,12(a5)
    80001ec4:	2781                	sext.w	a5,a5
    80001ec6:	8b91                	andi	a5,a5,4
    80001ec8:	2781                	sext.w	a5,a5
    80001eca:	cfb1                	beqz	a5,80001f26 <uart2_isr+0x1da>
    80001ecc:	00012797          	auipc	a5,0x12
    80001ed0:	7e478793          	addi	a5,a5,2020 # 800146b0 <uart_instance>
    80001ed4:	6b9c                	ld	a5,16(a5)
    80001ed6:	479c                	lw	a5,8(a5)
    80001ed8:	fef42623          	sw	a5,-20(s0)
    80001edc:	8a818793          	addi	a5,gp,-1880 # 80005070 <uart2_rcv_isr_count>
    80001ee0:	439c                	lw	a5,0(a5)
    80001ee2:	2781                	sext.w	a5,a5
    80001ee4:	0017871b          	addiw	a4,a5,1
    80001ee8:	0007069b          	sext.w	a3,a4
    80001eec:	8a818713          	addi	a4,gp,-1880 # 80005070 <uart2_rcv_isr_count>
    80001ef0:	c314                	sw	a3,0(a4)
    80001ef2:	fec42703          	lw	a4,-20(s0)
    80001ef6:	0ff77713          	andi	a4,a4,255
    80001efa:	00010697          	auipc	a3,0x10
    80001efe:	fa668693          	addi	a3,a3,-90 # 80011ea0 <u2_rcv_char>
    80001f02:	1782                	slli	a5,a5,0x20
    80001f04:	9381                	srli	a5,a5,0x20
    80001f06:	97b6                	add	a5,a5,a3
    80001f08:	00e78023          	sb	a4,0(a5)
    80001f0c:	00012797          	auipc	a5,0x12
    80001f10:	7a478793          	addi	a5,a5,1956 # 800146b0 <uart_instance>
    80001f14:	6b9c                	ld	a5,16(a5)
    80001f16:	fec42703          	lw	a4,-20(s0)
    80001f1a:	0ff77713          	andi	a4,a4,255
    80001f1e:	85ba                	mv	a1,a4
    80001f20:	853e                	mv	a0,a5
    80001f22:	8a7ff0ef          	jal	ra,800017c8 <write_uart_character>
    80001f26:	4781                	li	a5,0
    80001f28:	853e                	mv	a0,a5
    80001f2a:	60e2                	ld	ra,24(sp)
    80001f2c:	6442                	ld	s0,16(sp)
    80001f2e:	6105                	addi	sp,sp,32
    80001f30:	8082                	ret

0000000080001f32 <section_init>:
    80001f32:	1141                	addi	sp,sp,-16
    80001f34:	e422                	sd	s0,8(sp)
    80001f36:	0800                	addi	s0,sp,16
    80001f38:	0001                	nop
    80001f3a:	6422                	ld	s0,8(sp)
    80001f3c:	0141                	addi	sp,sp,16
    80001f3e:	8082                	ret

0000000080001f40 <trap_init>:
    80001f40:	1141                	addi	sp,sp,-16
    80001f42:	e406                	sd	ra,8(sp)
    80001f44:	e022                	sd	s0,0(sp)
    80001f46:	0800                	addi	s0,sp,16
    80001f48:	00002517          	auipc	a0,0x2
    80001f4c:	2c850513          	addi	a0,a0,712 # 80004210 <__rodata_start+0x270>
    80001f50:	8deff0ef          	jal	ra,8000102e <log_trace>
    80001f54:	00012797          	auipc	a5,0x12
    80001f58:	65c78793          	addi	a5,a5,1628 # 800145b0 <mcause_interrupt_table>
    80001f5c:	fffff717          	auipc	a4,0xfffff
    80001f60:	fd670713          	addi	a4,a4,-42 # 80000f32 <default_handler>
    80001f64:	e398                	sd	a4,0(a5)
    80001f66:	00012797          	auipc	a5,0x12
    80001f6a:	64a78793          	addi	a5,a5,1610 # 800145b0 <mcause_interrupt_table>
    80001f6e:	fffff717          	auipc	a4,0xfffff
    80001f72:	fc470713          	addi	a4,a4,-60 # 80000f32 <default_handler>
    80001f76:	e798                	sd	a4,8(a5)
    80001f78:	00012797          	auipc	a5,0x12
    80001f7c:	63878793          	addi	a5,a5,1592 # 800145b0 <mcause_interrupt_table>
    80001f80:	fffff717          	auipc	a4,0xfffff
    80001f84:	fb270713          	addi	a4,a4,-78 # 80000f32 <default_handler>
    80001f88:	eb98                	sd	a4,16(a5)
    80001f8a:	00012797          	auipc	a5,0x12
    80001f8e:	62678793          	addi	a5,a5,1574 # 800145b0 <mcause_interrupt_table>
    80001f92:	fffff717          	auipc	a4,0xfffff
    80001f96:	fa070713          	addi	a4,a4,-96 # 80000f32 <default_handler>
    80001f9a:	ef98                	sd	a4,24(a5)
    80001f9c:	00012797          	auipc	a5,0x12
    80001fa0:	61478793          	addi	a5,a5,1556 # 800145b0 <mcause_interrupt_table>
    80001fa4:	fffff717          	auipc	a4,0xfffff
    80001fa8:	f8e70713          	addi	a4,a4,-114 # 80000f32 <default_handler>
    80001fac:	f398                	sd	a4,32(a5)
    80001fae:	00012797          	auipc	a5,0x12
    80001fb2:	60278793          	addi	a5,a5,1538 # 800145b0 <mcause_interrupt_table>
    80001fb6:	fffff717          	auipc	a4,0xfffff
    80001fba:	f7c70713          	addi	a4,a4,-132 # 80000f32 <default_handler>
    80001fbe:	f798                	sd	a4,40(a5)
    80001fc0:	00012797          	auipc	a5,0x12
    80001fc4:	5f078793          	addi	a5,a5,1520 # 800145b0 <mcause_interrupt_table>
    80001fc8:	fffff717          	auipc	a4,0xfffff
    80001fcc:	f6a70713          	addi	a4,a4,-150 # 80000f32 <default_handler>
    80001fd0:	fb98                	sd	a4,48(a5)
    80001fd2:	00012797          	auipc	a5,0x12
    80001fd6:	5de78793          	addi	a5,a5,1502 # 800145b0 <mcause_interrupt_table>
    80001fda:	00000717          	auipc	a4,0x0
    80001fde:	2d870713          	addi	a4,a4,728 # 800022b2 <mach_clint_handler>
    80001fe2:	ff98                	sd	a4,56(a5)
    80001fe4:	00012797          	auipc	a5,0x12
    80001fe8:	5cc78793          	addi	a5,a5,1484 # 800145b0 <mcause_interrupt_table>
    80001fec:	fffff717          	auipc	a4,0xfffff
    80001ff0:	f4670713          	addi	a4,a4,-186 # 80000f32 <default_handler>
    80001ff4:	e3b8                	sd	a4,64(a5)
    80001ff6:	00012797          	auipc	a5,0x12
    80001ffa:	5ba78793          	addi	a5,a5,1466 # 800145b0 <mcause_interrupt_table>
    80001ffe:	fffff717          	auipc	a4,0xfffff
    80002002:	f3470713          	addi	a4,a4,-204 # 80000f32 <default_handler>
    80002006:	e7b8                	sd	a4,72(a5)
    80002008:	00012797          	auipc	a5,0x12
    8000200c:	5a878793          	addi	a5,a5,1448 # 800145b0 <mcause_interrupt_table>
    80002010:	fffff717          	auipc	a4,0xfffff
    80002014:	f2270713          	addi	a4,a4,-222 # 80000f32 <default_handler>
    80002018:	ebb8                	sd	a4,80(a5)
    8000201a:	00012797          	auipc	a5,0x12
    8000201e:	59678793          	addi	a5,a5,1430 # 800145b0 <mcause_interrupt_table>
    80002022:	00000717          	auipc	a4,0x0
    80002026:	43270713          	addi	a4,a4,1074 # 80002454 <mach_plic_handler>
    8000202a:	efb8                	sd	a4,88(a5)
    8000202c:	00012797          	auipc	a5,0x12
    80002030:	58478793          	addi	a5,a5,1412 # 800145b0 <mcause_interrupt_table>
    80002034:	fffff717          	auipc	a4,0xfffff
    80002038:	efe70713          	addi	a4,a4,-258 # 80000f32 <default_handler>
    8000203c:	f3b8                	sd	a4,96(a5)
    8000203e:	00012797          	auipc	a5,0x12
    80002042:	57278793          	addi	a5,a5,1394 # 800145b0 <mcause_interrupt_table>
    80002046:	fffff717          	auipc	a4,0xfffff
    8000204a:	eec70713          	addi	a4,a4,-276 # 80000f32 <default_handler>
    8000204e:	f7b8                	sd	a4,104(a5)
    80002050:	00012797          	auipc	a5,0x12
    80002054:	56078793          	addi	a5,a5,1376 # 800145b0 <mcause_interrupt_table>
    80002058:	fffff717          	auipc	a4,0xfffff
    8000205c:	eda70713          	addi	a4,a4,-294 # 80000f32 <default_handler>
    80002060:	fbb8                	sd	a4,112(a5)
    80002062:	00012797          	auipc	a5,0x12
    80002066:	54e78793          	addi	a5,a5,1358 # 800145b0 <mcause_interrupt_table>
    8000206a:	fffff717          	auipc	a4,0xfffff
    8000206e:	ec870713          	addi	a4,a4,-312 # 80000f32 <default_handler>
    80002072:	ffb8                	sd	a4,120(a5)
    80002074:	00012797          	auipc	a5,0x12
    80002078:	5bc78793          	addi	a5,a5,1468 # 80014630 <mcause_trap_table>
    8000207c:	fffff717          	auipc	a4,0xfffff
    80002080:	eb670713          	addi	a4,a4,-330 # 80000f32 <default_handler>
    80002084:	e398                	sd	a4,0(a5)
    80002086:	00012797          	auipc	a5,0x12
    8000208a:	5aa78793          	addi	a5,a5,1450 # 80014630 <mcause_trap_table>
    8000208e:	fffff717          	auipc	a4,0xfffff
    80002092:	ea470713          	addi	a4,a4,-348 # 80000f32 <default_handler>
    80002096:	e798                	sd	a4,8(a5)
    80002098:	00012797          	auipc	a5,0x12
    8000209c:	59878793          	addi	a5,a5,1432 # 80014630 <mcause_trap_table>
    800020a0:	fffff717          	auipc	a4,0xfffff
    800020a4:	e9270713          	addi	a4,a4,-366 # 80000f32 <default_handler>
    800020a8:	eb98                	sd	a4,16(a5)
    800020aa:	00012797          	auipc	a5,0x12
    800020ae:	58678793          	addi	a5,a5,1414 # 80014630 <mcause_trap_table>
    800020b2:	fffff717          	auipc	a4,0xfffff
    800020b6:	e8070713          	addi	a4,a4,-384 # 80000f32 <default_handler>
    800020ba:	ef98                	sd	a4,24(a5)
    800020bc:	00012797          	auipc	a5,0x12
    800020c0:	57478793          	addi	a5,a5,1396 # 80014630 <mcause_trap_table>
    800020c4:	fffff717          	auipc	a4,0xfffff
    800020c8:	e6e70713          	addi	a4,a4,-402 # 80000f32 <default_handler>
    800020cc:	f398                	sd	a4,32(a5)
    800020ce:	00012797          	auipc	a5,0x12
    800020d2:	56278793          	addi	a5,a5,1378 # 80014630 <mcause_trap_table>
    800020d6:	fffff717          	auipc	a4,0xfffff
    800020da:	e5c70713          	addi	a4,a4,-420 # 80000f32 <default_handler>
    800020de:	f798                	sd	a4,40(a5)
    800020e0:	00012797          	auipc	a5,0x12
    800020e4:	55078793          	addi	a5,a5,1360 # 80014630 <mcause_trap_table>
    800020e8:	fffff717          	auipc	a4,0xfffff
    800020ec:	e4a70713          	addi	a4,a4,-438 # 80000f32 <default_handler>
    800020f0:	fb98                	sd	a4,48(a5)
    800020f2:	00012797          	auipc	a5,0x12
    800020f6:	53e78793          	addi	a5,a5,1342 # 80014630 <mcause_trap_table>
    800020fa:	fffff717          	auipc	a4,0xfffff
    800020fe:	e3870713          	addi	a4,a4,-456 # 80000f32 <default_handler>
    80002102:	ff98                	sd	a4,56(a5)
    80002104:	00012797          	auipc	a5,0x12
    80002108:	52c78793          	addi	a5,a5,1324 # 80014630 <mcause_trap_table>
    8000210c:	fffff717          	auipc	a4,0xfffff
    80002110:	e2670713          	addi	a4,a4,-474 # 80000f32 <default_handler>
    80002114:	e3b8                	sd	a4,64(a5)
    80002116:	00012797          	auipc	a5,0x12
    8000211a:	51a78793          	addi	a5,a5,1306 # 80014630 <mcause_trap_table>
    8000211e:	fffff717          	auipc	a4,0xfffff
    80002122:	e1470713          	addi	a4,a4,-492 # 80000f32 <default_handler>
    80002126:	e7b8                	sd	a4,72(a5)
    80002128:	00012797          	auipc	a5,0x12
    8000212c:	50878793          	addi	a5,a5,1288 # 80014630 <mcause_trap_table>
    80002130:	fffff717          	auipc	a4,0xfffff
    80002134:	e0270713          	addi	a4,a4,-510 # 80000f32 <default_handler>
    80002138:	ebb8                	sd	a4,80(a5)
    8000213a:	00012797          	auipc	a5,0x12
    8000213e:	4f678793          	addi	a5,a5,1270 # 80014630 <mcause_trap_table>
    80002142:	fffff717          	auipc	a4,0xfffff
    80002146:	df070713          	addi	a4,a4,-528 # 80000f32 <default_handler>
    8000214a:	efb8                	sd	a4,88(a5)
    8000214c:	00012797          	auipc	a5,0x12
    80002150:	4e478793          	addi	a5,a5,1252 # 80014630 <mcause_trap_table>
    80002154:	fffff717          	auipc	a4,0xfffff
    80002158:	dde70713          	addi	a4,a4,-546 # 80000f32 <default_handler>
    8000215c:	f3b8                	sd	a4,96(a5)
    8000215e:	00012797          	auipc	a5,0x12
    80002162:	4d278793          	addi	a5,a5,1234 # 80014630 <mcause_trap_table>
    80002166:	fffff717          	auipc	a4,0xfffff
    8000216a:	dcc70713          	addi	a4,a4,-564 # 80000f32 <default_handler>
    8000216e:	f7b8                	sd	a4,104(a5)
    80002170:	00012797          	auipc	a5,0x12
    80002174:	4c078793          	addi	a5,a5,1216 # 80014630 <mcause_trap_table>
    80002178:	fffff717          	auipc	a4,0xfffff
    8000217c:	dba70713          	addi	a4,a4,-582 # 80000f32 <default_handler>
    80002180:	fbb8                	sd	a4,112(a5)
    80002182:	00012797          	auipc	a5,0x12
    80002186:	4ae78793          	addi	a5,a5,1198 # 80014630 <mcause_trap_table>
    8000218a:	fffff717          	auipc	a4,0xfffff
    8000218e:	da870713          	addi	a4,a4,-600 # 80000f32 <default_handler>
    80002192:	ffb8                	sd	a4,120(a5)
    80002194:	00002517          	auipc	a0,0x2
    80002198:	09450513          	addi	a0,a0,148 # 80004228 <__rodata_start+0x288>
    8000219c:	e93fe0ef          	jal	ra,8000102e <log_trace>
    800021a0:	0001                	nop
    800021a2:	60a2                	ld	ra,8(sp)
    800021a4:	6402                	ld	s0,0(sp)
    800021a6:	0141                	addi	sp,sp,16
    800021a8:	8082                	ret

00000000800021aa <init>:
    800021aa:	1141                	addi	sp,sp,-16
    800021ac:	e406                	sd	ra,8(sp)
    800021ae:	e022                	sd	s0,0(sp)
    800021b0:	0800                	addi	s0,sp,16
    800021b2:	cc6ff0ef          	jal	ra,80001678 <uart_init>
    800021b6:	00002517          	auipc	a0,0x2
    800021ba:	08a50513          	addi	a0,a0,138 # 80004240 <__rodata_start+0x2a0>
    800021be:	e71fe0ef          	jal	ra,8000102e <log_trace>
    800021c2:	d7fff0ef          	jal	ra,80001f40 <trap_init>
    800021c6:	834fe0ef          	jal	ra,800001fa <main>
    800021ca:	00002517          	auipc	a0,0x2
    800021ce:	08650513          	addi	a0,a0,134 # 80004250 <__rodata_start+0x2b0>
    800021d2:	e5dfe0ef          	jal	ra,8000102e <log_trace>
    800021d6:	0001                	nop
    800021d8:	60a2                	ld	ra,8(sp)
    800021da:	6402                	ld	s0,0(sp)
    800021dc:	0141                	addi	sp,sp,16
    800021de:	8082                	ret

00000000800021e0 <mtime_low>:
    800021e0:	1141                	addi	sp,sp,-16
    800021e2:	e422                	sd	s0,8(sp)
    800021e4:	0800                	addi	s0,sp,16
    800021e6:	0200c7b7          	lui	a5,0x200c
    800021ea:	17e1                	addi	a5,a5,-8
    800021ec:	439c                	lw	a5,0(a5)
    800021ee:	853e                	mv	a0,a5
    800021f0:	6422                	ld	s0,8(sp)
    800021f2:	0141                	addi	sp,sp,16
    800021f4:	8082                	ret

00000000800021f6 <mtime_high>:
    800021f6:	1141                	addi	sp,sp,-16
    800021f8:	e422                	sd	s0,8(sp)
    800021fa:	0800                	addi	s0,sp,16
    800021fc:	0200c7b7          	lui	a5,0x200c
    80002200:	17f1                	addi	a5,a5,-4
    80002202:	439c                	lw	a5,0(a5)
    80002204:	2781                	sext.w	a5,a5
    80002206:	853e                	mv	a0,a5
    80002208:	6422                	ld	s0,8(sp)
    8000220a:	0141                	addi	sp,sp,16
    8000220c:	8082                	ret

000000008000220e <get_timer_value>:
    8000220e:	1101                	addi	sp,sp,-32
    80002210:	ec06                	sd	ra,24(sp)
    80002212:	e822                	sd	s0,16(sp)
    80002214:	e426                	sd	s1,8(sp)
    80002216:	1000                	addi	s0,sp,32
    80002218:	fdfff0ef          	jal	ra,800021f6 <mtime_high>
    8000221c:	87aa                	mv	a5,a0
    8000221e:	2781                	sext.w	a5,a5
    80002220:	1782                	slli	a5,a5,0x20
    80002222:	9381                	srli	a5,a5,0x20
    80002224:	02079493          	slli	s1,a5,0x20
    80002228:	fb9ff0ef          	jal	ra,800021e0 <mtime_low>
    8000222c:	87aa                	mv	a5,a0
    8000222e:	2781                	sext.w	a5,a5
    80002230:	1782                	slli	a5,a5,0x20
    80002232:	9381                	srli	a5,a5,0x20
    80002234:	8fc5                	or	a5,a5,s1
    80002236:	853e                	mv	a0,a5
    80002238:	60e2                	ld	ra,24(sp)
    8000223a:	6442                	ld	s0,16(sp)
    8000223c:	64a2                	ld	s1,8(sp)
    8000223e:	6105                	addi	sp,sp,32
    80002240:	8082                	ret

0000000080002242 <configure_counter>:
    80002242:	1101                	addi	sp,sp,-32
    80002244:	ec06                	sd	ra,24(sp)
    80002246:	e822                	sd	s0,16(sp)
    80002248:	1000                	addi	s0,sp,32
    8000224a:	fea43423          	sd	a0,-24(s0)
    8000224e:	00002517          	auipc	a0,0x2
    80002252:	01250513          	addi	a0,a0,18 # 80004260 <__rodata_start+0x2c0>
    80002256:	dd9fe0ef          	jal	ra,8000102e <log_trace>
    8000225a:	88018793          	addi	a5,gp,-1920 # 80005048 <mtime>
    8000225e:	639c                	ld	a5,0(a5)
    80002260:	6394                	ld	a3,0(a5)
    80002262:	88818793          	addi	a5,gp,-1912 # 80005050 <mtimecmp>
    80002266:	639c                	ld	a5,0(a5)
    80002268:	fe843703          	ld	a4,-24(s0)
    8000226c:	9736                	add	a4,a4,a3
    8000226e:	e398                	sd	a4,0(a5)
    80002270:	88818793          	addi	a5,gp,-1912 # 80005050 <mtimecmp>
    80002274:	639c                	ld	a5,0(a5)
    80002276:	639c                	ld	a5,0(a5)
    80002278:	85be                	mv	a1,a5
    8000227a:	00002517          	auipc	a0,0x2
    8000227e:	00650513          	addi	a0,a0,6 # 80004280 <__rodata_start+0x2e0>
    80002282:	e1bfe0ef          	jal	ra,8000109c <log_debug>
    80002286:	88018793          	addi	a5,gp,-1920 # 80005048 <mtime>
    8000228a:	639c                	ld	a5,0(a5)
    8000228c:	639c                	ld	a5,0(a5)
    8000228e:	85be                	mv	a1,a5
    80002290:	00002517          	auipc	a0,0x2
    80002294:	00850513          	addi	a0,a0,8 # 80004298 <__rodata_start+0x2f8>
    80002298:	e05fe0ef          	jal	ra,8000109c <log_debug>
    8000229c:	00002517          	auipc	a0,0x2
    800022a0:	01450513          	addi	a0,a0,20 # 800042b0 <__rodata_start+0x310>
    800022a4:	d8bfe0ef          	jal	ra,8000102e <log_trace>
    800022a8:	0001                	nop
    800022aa:	60e2                	ld	ra,24(sp)
    800022ac:	6442                	ld	s0,16(sp)
    800022ae:	6105                	addi	sp,sp,32
    800022b0:	8082                	ret

00000000800022b2 <mach_clint_handler>:
    800022b2:	1101                	addi	sp,sp,-32
    800022b4:	ec06                	sd	ra,24(sp)
    800022b6:	e822                	sd	s0,16(sp)
    800022b8:	1000                	addi	s0,sp,32
    800022ba:	fea43423          	sd	a0,-24(s0)
    800022be:	feb43023          	sd	a1,-32(s0)
    800022c2:	00002517          	auipc	a0,0x2
    800022c6:	00e50513          	addi	a0,a0,14 # 800042d0 <__rodata_start+0x330>
    800022ca:	d65fe0ef          	jal	ra,8000102e <log_trace>
    800022ce:	88818793          	addi	a5,gp,-1912 # 80005050 <mtimecmp>
    800022d2:	639c                	ld	a5,0(a5)
    800022d4:	577d                	li	a4,-1
    800022d6:	e398                	sd	a4,0(a5)
    800022d8:	00002517          	auipc	a0,0x2
    800022dc:	01850513          	addi	a0,a0,24 # 800042f0 <__rodata_start+0x350>
    800022e0:	d73fe0ef          	jal	ra,80001052 <log_info>
    800022e4:	00002517          	auipc	a0,0x2
    800022e8:	02c50513          	addi	a0,a0,44 # 80004310 <__rodata_start+0x370>
    800022ec:	d43fe0ef          	jal	ra,8000102e <log_trace>
    800022f0:	0001                	nop
    800022f2:	60e2                	ld	ra,24(sp)
    800022f4:	6442                	ld	s0,16(sp)
    800022f6:	6105                	addi	sp,sp,32
    800022f8:	8082                	ret

00000000800022fa <interrupt_complete>:
    800022fa:	7179                	addi	sp,sp,-48
    800022fc:	f406                	sd	ra,40(sp)
    800022fe:	f022                	sd	s0,32(sp)
    80002300:	1800                	addi	s0,sp,48
    80002302:	87aa                	mv	a5,a0
    80002304:	fcf42e23          	sw	a5,-36(s0)
    80002308:	00002517          	auipc	a0,0x2
    8000230c:	02850513          	addi	a0,a0,40 # 80004330 <__rodata_start+0x390>
    80002310:	d1ffe0ef          	jal	ra,8000102e <log_trace>
    80002314:	0c0107b7          	lui	a5,0xc010
    80002318:	07c1                	addi	a5,a5,16
    8000231a:	fef43423          	sd	a5,-24(s0)
    8000231e:	fe843783          	ld	a5,-24(s0)
    80002322:	fdc42703          	lw	a4,-36(s0)
    80002326:	c398                	sw	a4,0(a5)
    80002328:	00012717          	auipc	a4,0x12
    8000232c:	39070713          	addi	a4,a4,912 # 800146b8 <hart0_interrupt_matrix>
    80002330:	fdc46783          	lwu	a5,-36(s0)
    80002334:	0792                	slli	a5,a5,0x4
    80002336:	97ba                	add	a5,a5,a4
    80002338:	4709                	li	a4,2
    8000233a:	c798                	sw	a4,8(a5)
    8000233c:	00012717          	auipc	a4,0x12
    80002340:	37c70713          	addi	a4,a4,892 # 800146b8 <hart0_interrupt_matrix>
    80002344:	fdc46783          	lwu	a5,-36(s0)
    80002348:	0792                	slli	a5,a5,0x4
    8000234a:	97ba                	add	a5,a5,a4
    8000234c:	47dc                	lw	a5,12(a5)
    8000234e:	2785                	addiw	a5,a5,1
    80002350:	0007871b          	sext.w	a4,a5
    80002354:	00012697          	auipc	a3,0x12
    80002358:	36468693          	addi	a3,a3,868 # 800146b8 <hart0_interrupt_matrix>
    8000235c:	fdc46783          	lwu	a5,-36(s0)
    80002360:	0792                	slli	a5,a5,0x4
    80002362:	97b6                	add	a5,a5,a3
    80002364:	c7d8                	sw	a4,12(a5)
    80002366:	00012717          	auipc	a4,0x12
    8000236a:	35270713          	addi	a4,a4,850 # 800146b8 <hart0_interrupt_matrix>
    8000236e:	fdc46783          	lwu	a5,-36(s0)
    80002372:	0792                	slli	a5,a5,0x4
    80002374:	97ba                	add	a5,a5,a4
    80002376:	4798                	lw	a4,8(a5)
    80002378:	fdc42783          	lw	a5,-36(s0)
    8000237c:	863a                	mv	a2,a4
    8000237e:	85be                	mv	a1,a5
    80002380:	00002517          	auipc	a0,0x2
    80002384:	fd050513          	addi	a0,a0,-48 # 80004350 <__rodata_start+0x3b0>
    80002388:	d15fe0ef          	jal	ra,8000109c <log_debug>
    8000238c:	00012717          	auipc	a4,0x12
    80002390:	32c70713          	addi	a4,a4,812 # 800146b8 <hart0_interrupt_matrix>
    80002394:	fdc46783          	lwu	a5,-36(s0)
    80002398:	0792                	slli	a5,a5,0x4
    8000239a:	97ba                	add	a5,a5,a4
    8000239c:	438c                	lw	a1,0(a5)
    8000239e:	00012717          	auipc	a4,0x12
    800023a2:	31a70713          	addi	a4,a4,794 # 800146b8 <hart0_interrupt_matrix>
    800023a6:	fdc46783          	lwu	a5,-36(s0)
    800023aa:	0792                	slli	a5,a5,0x4
    800023ac:	97ba                	add	a5,a5,a4
    800023ae:	4790                	lw	a2,8(a5)
    800023b0:	00012717          	auipc	a4,0x12
    800023b4:	30870713          	addi	a4,a4,776 # 800146b8 <hart0_interrupt_matrix>
    800023b8:	fdc46783          	lwu	a5,-36(s0)
    800023bc:	0792                	slli	a5,a5,0x4
    800023be:	97ba                	add	a5,a5,a4
    800023c0:	43d4                	lw	a3,4(a5)
    800023c2:	00012717          	auipc	a4,0x12
    800023c6:	2f670713          	addi	a4,a4,758 # 800146b8 <hart0_interrupt_matrix>
    800023ca:	fdc46783          	lwu	a5,-36(s0)
    800023ce:	0792                	slli	a5,a5,0x4
    800023d0:	97ba                	add	a5,a5,a4
    800023d2:	47dc                	lw	a5,12(a5)
    800023d4:	873e                	mv	a4,a5
    800023d6:	00002517          	auipc	a0,0x2
    800023da:	fa250513          	addi	a0,a0,-94 # 80004378 <__rodata_start+0x3d8>
    800023de:	cbffe0ef          	jal	ra,8000109c <log_debug>
    800023e2:	00002517          	auipc	a0,0x2
    800023e6:	fee50513          	addi	a0,a0,-18 # 800043d0 <__rodata_start+0x430>
    800023ea:	c45fe0ef          	jal	ra,8000102e <log_trace>
    800023ee:	0001                	nop
    800023f0:	70a2                	ld	ra,40(sp)
    800023f2:	7402                	ld	s0,32(sp)
    800023f4:	6145                	addi	sp,sp,48
    800023f6:	8082                	ret

00000000800023f8 <interrupt_claim_request>:
    800023f8:	1101                	addi	sp,sp,-32
    800023fa:	ec06                	sd	ra,24(sp)
    800023fc:	e822                	sd	s0,16(sp)
    800023fe:	1000                	addi	s0,sp,32
    80002400:	fe043423          	sd	zero,-24(s0)
    80002404:	00002517          	auipc	a0,0x2
    80002408:	fec50513          	addi	a0,a0,-20 # 800043f0 <__rodata_start+0x450>
    8000240c:	c23fe0ef          	jal	ra,8000102e <log_trace>
    80002410:	0c0107b7          	lui	a5,0xc010
    80002414:	07c1                	addi	a5,a5,16
    80002416:	fef43423          	sd	a5,-24(s0)
    8000241a:	fe843783          	ld	a5,-24(s0)
    8000241e:	439c                	lw	a5,0(a5)
    80002420:	fef42223          	sw	a5,-28(s0)
    80002424:	fe442783          	lw	a5,-28(s0)
    80002428:	fe843603          	ld	a2,-24(s0)
    8000242c:	85be                	mv	a1,a5
    8000242e:	00002517          	auipc	a0,0x2
    80002432:	fea50513          	addi	a0,a0,-22 # 80004418 <__rodata_start+0x478>
    80002436:	c67fe0ef          	jal	ra,8000109c <log_debug>
    8000243a:	00002517          	auipc	a0,0x2
    8000243e:	00e50513          	addi	a0,a0,14 # 80004448 <__rodata_start+0x4a8>
    80002442:	bedfe0ef          	jal	ra,8000102e <log_trace>
    80002446:	fe442783          	lw	a5,-28(s0)
    8000244a:	853e                	mv	a0,a5
    8000244c:	60e2                	ld	ra,24(sp)
    8000244e:	6442                	ld	s0,16(sp)
    80002450:	6105                	addi	sp,sp,32
    80002452:	8082                	ret

0000000080002454 <mach_plic_handler>:
    80002454:	7179                	addi	sp,sp,-48
    80002456:	f406                	sd	ra,40(sp)
    80002458:	f022                	sd	s0,32(sp)
    8000245a:	1800                	addi	s0,sp,48
    8000245c:	fca43c23          	sd	a0,-40(s0)
    80002460:	fcb43823          	sd	a1,-48(s0)
    80002464:	00002517          	auipc	a0,0x2
    80002468:	00450513          	addi	a0,a0,4 # 80004468 <__rodata_start+0x4c8>
    8000246c:	bc3fe0ef          	jal	ra,8000102e <log_trace>
    80002470:	f89ff0ef          	jal	ra,800023f8 <interrupt_claim_request>
    80002474:	87aa                	mv	a5,a0
    80002476:	fef42623          	sw	a5,-20(s0)
    8000247a:	fec42783          	lw	a5,-20(s0)
    8000247e:	85be                	mv	a1,a5
    80002480:	00002517          	auipc	a0,0x2
    80002484:	00850513          	addi	a0,a0,8 # 80004488 <__rodata_start+0x4e8>
    80002488:	c15fe0ef          	jal	ra,8000109c <log_debug>
    8000248c:	fec42783          	lw	a5,-20(s0)
    80002490:	2781                	sext.w	a5,a5
    80002492:	cb81                	beqz	a5,800024a2 <mach_plic_handler+0x4e>
    80002494:	fec42783          	lw	a5,-20(s0)
    80002498:	0007871b          	sext.w	a4,a5
    8000249c:	47e9                	li	a5,26
    8000249e:	00e7fb63          	bgeu	a5,a4,800024b4 <mach_plic_handler+0x60>
    800024a2:	fec42783          	lw	a5,-20(s0)
    800024a6:	85be                	mv	a1,a5
    800024a8:	00002517          	auipc	a0,0x2
    800024ac:	00050513          	mv	a0,a0
    800024b0:	ca5fe0ef          	jal	ra,80001154 <log_fatal>
    800024b4:	00012717          	auipc	a4,0x12
    800024b8:	20470713          	addi	a4,a4,516 # 800146b8 <hart0_interrupt_matrix>
    800024bc:	fec46783          	lwu	a5,-20(s0)
    800024c0:	0792                	slli	a5,a5,0x4
    800024c2:	97ba                	add	a5,a5,a4
    800024c4:	4705                	li	a4,1
    800024c6:	c798                	sw	a4,8(a5)
    800024c8:	00012717          	auipc	a4,0x12
    800024cc:	1f070713          	addi	a4,a4,496 # 800146b8 <hart0_interrupt_matrix>
    800024d0:	fec46783          	lwu	a5,-20(s0)
    800024d4:	0792                	slli	a5,a5,0x4
    800024d6:	97ba                	add	a5,a5,a4
    800024d8:	4798                	lw	a4,8(a5)
    800024da:	fec42783          	lw	a5,-20(s0)
    800024de:	863a                	mv	a2,a4
    800024e0:	85be                	mv	a1,a5
    800024e2:	00002517          	auipc	a0,0x2
    800024e6:	e6e50513          	addi	a0,a0,-402 # 80004350 <__rodata_start+0x3b0>
    800024ea:	bb3fe0ef          	jal	ra,8000109c <log_debug>
    800024ee:	00012717          	auipc	a4,0x12
    800024f2:	36a70713          	addi	a4,a4,874 # 80014858 <isr_table>
    800024f6:	fec46783          	lwu	a5,-20(s0)
    800024fa:	078e                	slli	a5,a5,0x3
    800024fc:	97ba                	add	a5,a5,a4
    800024fe:	6398                	ld	a4,0(a5)
    80002500:	fec42783          	lw	a5,-20(s0)
    80002504:	853e                	mv	a0,a5
    80002506:	9702                	jalr	a4
    80002508:	fec42783          	lw	a5,-20(s0)
    8000250c:	853e                	mv	a0,a5
    8000250e:	dedff0ef          	jal	ra,800022fa <interrupt_complete>
    80002512:	fec42783          	lw	a5,-20(s0)
    80002516:	85be                	mv	a1,a5
    80002518:	00002517          	auipc	a0,0x2
    8000251c:	fc850513          	addi	a0,a0,-56 # 800044e0 <__rodata_start+0x540>
    80002520:	b7dfe0ef          	jal	ra,8000109c <log_debug>
    80002524:	00002517          	auipc	a0,0x2
    80002528:	fdc50513          	addi	a0,a0,-36 # 80004500 <__rodata_start+0x560>
    8000252c:	b03fe0ef          	jal	ra,8000102e <log_trace>
    80002530:	0001                	nop
    80002532:	70a2                	ld	ra,40(sp)
    80002534:	7402                	ld	s0,32(sp)
    80002536:	6145                	addi	sp,sp,48
    80002538:	8082                	ret

000000008000253a <isr_default>:
    8000253a:	1101                	addi	sp,sp,-32
    8000253c:	ec06                	sd	ra,24(sp)
    8000253e:	e822                	sd	s0,16(sp)
    80002540:	1000                	addi	s0,sp,32
    80002542:	87aa                	mv	a5,a0
    80002544:	fef42623          	sw	a5,-20(s0)
    80002548:	00002517          	auipc	a0,0x2
    8000254c:	fd850513          	addi	a0,a0,-40 # 80004520 <__rodata_start+0x580>
    80002550:	adffe0ef          	jal	ra,8000102e <log_trace>
    80002554:	fec42783          	lw	a5,-20(s0)
    80002558:	2781                	sext.w	a5,a5
    8000255a:	c3a1                	beqz	a5,8000259a <isr_default+0x60>
    8000255c:	fec42783          	lw	a5,-20(s0)
    80002560:	0007871b          	sext.w	a4,a5
    80002564:	4799                	li	a5,6
    80002566:	02e7ea63          	bltu	a5,a4,8000259a <isr_default+0x60>
    8000256a:	4719                	li	a4,6
    8000256c:	fec42783          	lw	a5,-20(s0)
    80002570:	40f707bb          	subw	a5,a4,a5
    80002574:	2781                	sext.w	a5,a5
    80002576:	2781                	sext.w	a5,a5
    80002578:	853e                	mv	a0,a5
    8000257a:	74e000ef          	jal	ra,80002cc8 <pwm_check_continuous_mode>
    8000257e:	87aa                	mv	a5,a0
    80002580:	ef89                	bnez	a5,8000259a <isr_default+0x60>
    80002582:	4719                	li	a4,6
    80002584:	fec42783          	lw	a5,-20(s0)
    80002588:	40f707bb          	subw	a5,a4,a5
    8000258c:	2781                	sext.w	a5,a5
    8000258e:	2781                	sext.w	a5,a5
    80002590:	08000593          	li	a1,128
    80002594:	853e                	mv	a0,a5
    80002596:	6ac000ef          	jal	ra,80002c42 <set_pwm_control_register>
    8000259a:	fec42783          	lw	a5,-20(s0)
    8000259e:	85be                	mv	a1,a5
    800025a0:	00002517          	auipc	a0,0x2
    800025a4:	f9850513          	addi	a0,a0,-104 # 80004538 <__rodata_start+0x598>
    800025a8:	aabfe0ef          	jal	ra,80001052 <log_info>
    800025ac:	00002517          	auipc	a0,0x2
    800025b0:	fac50513          	addi	a0,a0,-84 # 80004558 <__rodata_start+0x5b8>
    800025b4:	a7bfe0ef          	jal	ra,8000102e <log_trace>
    800025b8:	0001                	nop
    800025ba:	60e2                	ld	ra,24(sp)
    800025bc:	6442                	ld	s0,16(sp)
    800025be:	6105                	addi	sp,sp,32
    800025c0:	8082                	ret

00000000800025c2 <interrupt_enable>:
    800025c2:	7139                	addi	sp,sp,-64
    800025c4:	fc06                	sd	ra,56(sp)
    800025c6:	f822                	sd	s0,48(sp)
    800025c8:	0080                	addi	s0,sp,64
    800025ca:	87aa                	mv	a5,a0
    800025cc:	fcf42623          	sw	a5,-52(s0)
    800025d0:	fe0407a3          	sb	zero,-17(s0)
    800025d4:	00002517          	auipc	a0,0x2
    800025d8:	f9c50513          	addi	a0,a0,-100 # 80004570 <__rodata_start+0x5d0>
    800025dc:	a53fe0ef          	jal	ra,8000102e <log_trace>
    800025e0:	fcc42783          	lw	a5,-52(s0)
    800025e4:	85be                	mv	a1,a5
    800025e6:	00002517          	auipc	a0,0x2
    800025ea:	faa50513          	addi	a0,a0,-86 # 80004590 <__rodata_start+0x5f0>
    800025ee:	aaffe0ef          	jal	ra,8000109c <log_debug>
    800025f2:	6609                	lui	a2,0x2
    800025f4:	0c0005b7          	lui	a1,0xc000
    800025f8:	00002517          	auipc	a0,0x2
    800025fc:	fb050513          	addi	a0,a0,-80 # 800045a8 <__rodata_start+0x608>
    80002600:	a9dfe0ef          	jal	ra,8000109c <log_debug>
    80002604:	fcc42783          	lw	a5,-52(s0)
    80002608:	0037d79b          	srliw	a5,a5,0x3
    8000260c:	2781                	sext.w	a5,a5
    8000260e:	02079713          	slli	a4,a5,0x20
    80002612:	9301                	srli	a4,a4,0x20
    80002614:	0c0027b7          	lui	a5,0xc002
    80002618:	97ba                	add	a5,a5,a4
    8000261a:	fef43023          	sd	a5,-32(s0)
    8000261e:	fe043783          	ld	a5,-32(s0)
    80002622:	0007c783          	lbu	a5,0(a5) # c002000 <_free_space+0x4016d28>
    80002626:	fef407a3          	sb	a5,-17(s0)
    8000262a:	fef44783          	lbu	a5,-17(s0)
    8000262e:	2781                	sext.w	a5,a5
    80002630:	863e                	mv	a2,a5
    80002632:	fe043583          	ld	a1,-32(s0)
    80002636:	00002517          	auipc	a0,0x2
    8000263a:	faa50513          	addi	a0,a0,-86 # 800045e0 <__rodata_start+0x640>
    8000263e:	a5ffe0ef          	jal	ra,8000109c <log_debug>
    80002642:	fcc42783          	lw	a5,-52(s0)
    80002646:	8b9d                	andi	a5,a5,7
    80002648:	2781                	sext.w	a5,a5
    8000264a:	4705                	li	a4,1
    8000264c:	00f717bb          	sllw	a5,a4,a5
    80002650:	2781                	sext.w	a5,a5
    80002652:	0187971b          	slliw	a4,a5,0x18
    80002656:	4187571b          	sraiw	a4,a4,0x18
    8000265a:	fef40783          	lb	a5,-17(s0)
    8000265e:	8fd9                	or	a5,a5,a4
    80002660:	0187979b          	slliw	a5,a5,0x18
    80002664:	4187d79b          	sraiw	a5,a5,0x18
    80002668:	fcf40fa3          	sb	a5,-33(s0)
    8000266c:	fe043783          	ld	a5,-32(s0)
    80002670:	fdf44703          	lbu	a4,-33(s0)
    80002674:	00e78023          	sb	a4,0(a5)
    80002678:	fdf44783          	lbu	a5,-33(s0)
    8000267c:	2781                	sext.w	a5,a5
    8000267e:	85be                	mv	a1,a5
    80002680:	00002517          	auipc	a0,0x2
    80002684:	f9050513          	addi	a0,a0,-112 # 80004610 <__rodata_start+0x670>
    80002688:	a15fe0ef          	jal	ra,8000109c <log_debug>
    8000268c:	00002517          	auipc	a0,0x2
    80002690:	fa450513          	addi	a0,a0,-92 # 80004630 <__rodata_start+0x690>
    80002694:	99bfe0ef          	jal	ra,8000102e <log_trace>
    80002698:	0001                	nop
    8000269a:	70e2                	ld	ra,56(sp)
    8000269c:	7442                	ld	s0,48(sp)
    8000269e:	6121                	addi	sp,sp,64
    800026a0:	8082                	ret

00000000800026a2 <interrupt_disable>:
    800026a2:	7179                	addi	sp,sp,-48
    800026a4:	f406                	sd	ra,40(sp)
    800026a6:	f022                	sd	s0,32(sp)
    800026a8:	1800                	addi	s0,sp,48
    800026aa:	87aa                	mv	a5,a0
    800026ac:	fcf42e23          	sw	a5,-36(s0)
    800026b0:	fe043423          	sd	zero,-24(s0)
    800026b4:	fe0403a3          	sb	zero,-25(s0)
    800026b8:	00002517          	auipc	a0,0x2
    800026bc:	f9850513          	addi	a0,a0,-104 # 80004650 <__rodata_start+0x6b0>
    800026c0:	96ffe0ef          	jal	ra,8000102e <log_trace>
    800026c4:	fdc42783          	lw	a5,-36(s0)
    800026c8:	85be                	mv	a1,a5
    800026ca:	00002517          	auipc	a0,0x2
    800026ce:	ec650513          	addi	a0,a0,-314 # 80004590 <__rodata_start+0x5f0>
    800026d2:	9cbfe0ef          	jal	ra,8000109c <log_debug>
    800026d6:	fdc42783          	lw	a5,-36(s0)
    800026da:	86be                	mv	a3,a5
    800026dc:	6609                	lui	a2,0x2
    800026de:	0c0005b7          	lui	a1,0xc000
    800026e2:	00002517          	auipc	a0,0x2
    800026e6:	f8e50513          	addi	a0,a0,-114 # 80004670 <__rodata_start+0x6d0>
    800026ea:	9b3fe0ef          	jal	ra,8000109c <log_debug>
    800026ee:	fdc42783          	lw	a5,-36(s0)
    800026f2:	0037d79b          	srliw	a5,a5,0x3
    800026f6:	2781                	sext.w	a5,a5
    800026f8:	02079713          	slli	a4,a5,0x20
    800026fc:	9301                	srli	a4,a4,0x20
    800026fe:	0c0027b7          	lui	a5,0xc002
    80002702:	97ba                	add	a5,a5,a4
    80002704:	fef43423          	sd	a5,-24(s0)
    80002708:	fe843783          	ld	a5,-24(s0)
    8000270c:	0007c783          	lbu	a5,0(a5) # c002000 <_free_space+0x4016d28>
    80002710:	fef403a3          	sb	a5,-25(s0)
    80002714:	fe744783          	lbu	a5,-25(s0)
    80002718:	2781                	sext.w	a5,a5
    8000271a:	863e                	mv	a2,a5
    8000271c:	fe843583          	ld	a1,-24(s0)
    80002720:	00002517          	auipc	a0,0x2
    80002724:	f9850513          	addi	a0,a0,-104 # 800046b8 <__rodata_start+0x718>
    80002728:	975fe0ef          	jal	ra,8000109c <log_debug>
    8000272c:	fdc42783          	lw	a5,-36(s0)
    80002730:	8b9d                	andi	a5,a5,7
    80002732:	2781                	sext.w	a5,a5
    80002734:	4705                	li	a4,1
    80002736:	00f717bb          	sllw	a5,a4,a5
    8000273a:	2781                	sext.w	a5,a5
    8000273c:	0187979b          	slliw	a5,a5,0x18
    80002740:	4187d79b          	sraiw	a5,a5,0x18
    80002744:	fff7c793          	not	a5,a5
    80002748:	0187971b          	slliw	a4,a5,0x18
    8000274c:	4187571b          	sraiw	a4,a4,0x18
    80002750:	fe740783          	lb	a5,-25(s0)
    80002754:	8ff9                	and	a5,a5,a4
    80002756:	0187979b          	slliw	a5,a5,0x18
    8000275a:	4187d79b          	sraiw	a5,a5,0x18
    8000275e:	fef40323          	sb	a5,-26(s0)
    80002762:	fe843783          	ld	a5,-24(s0)
    80002766:	fe644703          	lbu	a4,-26(s0)
    8000276a:	00e78023          	sb	a4,0(a5)
    8000276e:	00012717          	auipc	a4,0x12
    80002772:	f4a70713          	addi	a4,a4,-182 # 800146b8 <hart0_interrupt_matrix>
    80002776:	fdc46783          	lwu	a5,-36(s0)
    8000277a:	0792                	slli	a5,a5,0x4
    8000277c:	97ba                	add	a5,a5,a4
    8000277e:	0007a423          	sw	zero,8(a5)
    80002782:	00012717          	auipc	a4,0x12
    80002786:	f3670713          	addi	a4,a4,-202 # 800146b8 <hart0_interrupt_matrix>
    8000278a:	fdc46783          	lwu	a5,-36(s0)
    8000278e:	0792                	slli	a5,a5,0x4
    80002790:	97ba                	add	a5,a5,a4
    80002792:	4798                	lw	a4,8(a5)
    80002794:	fdc42783          	lw	a5,-36(s0)
    80002798:	863a                	mv	a2,a4
    8000279a:	85be                	mv	a1,a5
    8000279c:	00002517          	auipc	a0,0x2
    800027a0:	bb450513          	addi	a0,a0,-1100 # 80004350 <__rodata_start+0x3b0>
    800027a4:	8f9fe0ef          	jal	ra,8000109c <log_debug>
    800027a8:	00002517          	auipc	a0,0x2
    800027ac:	f4850513          	addi	a0,a0,-184 # 800046f0 <__rodata_start+0x750>
    800027b0:	87ffe0ef          	jal	ra,8000102e <log_trace>
    800027b4:	0001                	nop
    800027b6:	70a2                	ld	ra,40(sp)
    800027b8:	7402                	ld	s0,32(sp)
    800027ba:	6145                	addi	sp,sp,48
    800027bc:	8082                	ret

00000000800027be <set_interrupt_threshold>:
    800027be:	7179                	addi	sp,sp,-48
    800027c0:	f406                	sd	ra,40(sp)
    800027c2:	f022                	sd	s0,32(sp)
    800027c4:	1800                	addi	s0,sp,48
    800027c6:	87aa                	mv	a5,a0
    800027c8:	fcf42e23          	sw	a5,-36(s0)
    800027cc:	00002517          	auipc	a0,0x2
    800027d0:	f4450513          	addi	a0,a0,-188 # 80004710 <__rodata_start+0x770>
    800027d4:	85bfe0ef          	jal	ra,8000102e <log_trace>
    800027d8:	fe043423          	sd	zero,-24(s0)
    800027dc:	0c0107b7          	lui	a5,0xc010
    800027e0:	fef43423          	sd	a5,-24(s0)
    800027e4:	fe843783          	ld	a5,-24(s0)
    800027e8:	fdc42703          	lw	a4,-36(s0)
    800027ec:	c398                	sw	a4,0(a5)
    800027ee:	fe843783          	ld	a5,-24(s0)
    800027f2:	439c                	lw	a5,0(a5)
    800027f4:	85be                	mv	a1,a5
    800027f6:	00002517          	auipc	a0,0x2
    800027fa:	f4250513          	addi	a0,a0,-190 # 80004738 <__rodata_start+0x798>
    800027fe:	89ffe0ef          	jal	ra,8000109c <log_debug>
    80002802:	00002517          	auipc	a0,0x2
    80002806:	f5650513          	addi	a0,a0,-170 # 80004758 <__rodata_start+0x7b8>
    8000280a:	825fe0ef          	jal	ra,8000102e <log_trace>
    8000280e:	0001                	nop
    80002810:	70a2                	ld	ra,40(sp)
    80002812:	7402                	ld	s0,32(sp)
    80002814:	6145                	addi	sp,sp,48
    80002816:	8082                	ret

0000000080002818 <set_interrupt_priority>:
    80002818:	7179                	addi	sp,sp,-48
    8000281a:	f406                	sd	ra,40(sp)
    8000281c:	f022                	sd	s0,32(sp)
    8000281e:	1800                	addi	s0,sp,48
    80002820:	87aa                	mv	a5,a0
    80002822:	872e                	mv	a4,a1
    80002824:	fcf42e23          	sw	a5,-36(s0)
    80002828:	87ba                	mv	a5,a4
    8000282a:	fcf42c23          	sw	a5,-40(s0)
    8000282e:	fdc42783          	lw	a5,-36(s0)
    80002832:	85be                	mv	a1,a5
    80002834:	00002517          	auipc	a0,0x2
    80002838:	f4450513          	addi	a0,a0,-188 # 80004778 <__rodata_start+0x7d8>
    8000283c:	ff2fe0ef          	jal	ra,8000102e <log_trace>
    80002840:	fd842783          	lw	a5,-40(s0)
    80002844:	0027979b          	slliw	a5,a5,0x2
    80002848:	2781                	sext.w	a5,a5
    8000284a:	02079713          	slli	a4,a5,0x20
    8000284e:	9301                	srli	a4,a4,0x20
    80002850:	0c0007b7          	lui	a5,0xc000
    80002854:	97ba                	add	a5,a5,a4
    80002856:	fef43423          	sd	a5,-24(s0)
    8000285a:	fe843583          	ld	a1,-24(s0)
    8000285e:	00002517          	auipc	a0,0x2
    80002862:	f4250513          	addi	a0,a0,-190 # 800047a0 <__rodata_start+0x800>
    80002866:	837fe0ef          	jal	ra,8000109c <log_debug>
    8000286a:	fe843783          	ld	a5,-24(s0)
    8000286e:	439c                	lw	a5,0(a5)
    80002870:	85be                	mv	a1,a5
    80002872:	00002517          	auipc	a0,0x2
    80002876:	f5650513          	addi	a0,a0,-170 # 800047c8 <__rodata_start+0x828>
    8000287a:	823fe0ef          	jal	ra,8000109c <log_debug>
    8000287e:	fe843783          	ld	a5,-24(s0)
    80002882:	fdc42703          	lw	a4,-36(s0)
    80002886:	c398                	sw	a4,0(a5)
    80002888:	fe843783          	ld	a5,-24(s0)
    8000288c:	439c                	lw	a5,0(a5)
    8000288e:	85be                	mv	a1,a5
    80002890:	00002517          	auipc	a0,0x2
    80002894:	f7050513          	addi	a0,a0,-144 # 80004800 <__rodata_start+0x860>
    80002898:	805fe0ef          	jal	ra,8000109c <log_debug>
    8000289c:	00002517          	auipc	a0,0x2
    800028a0:	f9450513          	addi	a0,a0,-108 # 80004830 <__rodata_start+0x890>
    800028a4:	f8afe0ef          	jal	ra,8000102e <log_trace>
    800028a8:	0001                	nop
    800028aa:	70a2                	ld	ra,40(sp)
    800028ac:	7402                	ld	s0,32(sp)
    800028ae:	6145                	addi	sp,sp,48
    800028b0:	8082                	ret

00000000800028b2 <configure_interrupt_pin>:
    800028b2:	7179                	addi	sp,sp,-48
    800028b4:	f406                	sd	ra,40(sp)
    800028b6:	f022                	sd	s0,32(sp)
    800028b8:	1800                	addi	s0,sp,48
    800028ba:	87aa                	mv	a5,a0
    800028bc:	fcf42e23          	sw	a5,-36(s0)
    800028c0:	00002517          	auipc	a0,0x2
    800028c4:	f9050513          	addi	a0,a0,-112 # 80004850 <__rodata_start+0x8b0>
    800028c8:	f66fe0ef          	jal	ra,8000102e <log_trace>
    800028cc:	020d0537          	lui	a0,0x20d0
    800028d0:	d92fe0ef          	jal	ra,80000e62 <read_word>
    800028d4:	87aa                	mv	a5,a0
    800028d6:	fef42623          	sw	a5,-20(s0)
    800028da:	fec42783          	lw	a5,-20(s0)
    800028de:	85be                	mv	a1,a5
    800028e0:	00002517          	auipc	a0,0x2
    800028e4:	f9850513          	addi	a0,a0,-104 # 80004878 <__rodata_start+0x8d8>
    800028e8:	fb4fe0ef          	jal	ra,8000109c <log_debug>
    800028ec:	fdc42783          	lw	a5,-36(s0)
    800028f0:	37e5                	addiw	a5,a5,-7
    800028f2:	2781                	sext.w	a5,a5
    800028f4:	4705                	li	a4,1
    800028f6:	00f717bb          	sllw	a5,a4,a5
    800028fa:	2781                	sext.w	a5,a5
    800028fc:	fff7c793          	not	a5,a5
    80002900:	2781                	sext.w	a5,a5
    80002902:	0007871b          	sext.w	a4,a5
    80002906:	fec42783          	lw	a5,-20(s0)
    8000290a:	8ff9                	and	a5,a5,a4
    8000290c:	2781                	sext.w	a5,a5
    8000290e:	1782                	slli	a5,a5,0x20
    80002910:	9381                	srli	a5,a5,0x20
    80002912:	85be                	mv	a1,a5
    80002914:	020d0537          	lui	a0,0x20d0
    80002918:	d82fe0ef          	jal	ra,80000e9a <write_word>
    8000291c:	020d0537          	lui	a0,0x20d0
    80002920:	d42fe0ef          	jal	ra,80000e62 <read_word>
    80002924:	87aa                	mv	a5,a0
    80002926:	85be                	mv	a1,a5
    80002928:	00002517          	auipc	a0,0x2
    8000292c:	f7850513          	addi	a0,a0,-136 # 800048a0 <__rodata_start+0x900>
    80002930:	f6cfe0ef          	jal	ra,8000109c <log_debug>
    80002934:	00002517          	auipc	a0,0x2
    80002938:	f9c50513          	addi	a0,a0,-100 # 800048d0 <__rodata_start+0x930>
    8000293c:	ef2fe0ef          	jal	ra,8000102e <log_trace>
    80002940:	0001                	nop
    80002942:	70a2                	ld	ra,40(sp)
    80002944:	7402                	ld	s0,32(sp)
    80002946:	6145                	addi	sp,sp,48
    80002948:	8082                	ret

000000008000294a <plic_init>:
    8000294a:	1101                	addi	sp,sp,-32
    8000294c:	ec06                	sd	ra,24(sp)
    8000294e:	e822                	sd	s0,16(sp)
    80002950:	1000                	addi	s0,sp,32
    80002952:	fe042623          	sw	zero,-20(s0)
    80002956:	00002517          	auipc	a0,0x2
    8000295a:	f9a50513          	addi	a0,a0,-102 # 800048f0 <__rodata_start+0x950>
    8000295e:	ed0fe0ef          	jal	ra,8000102e <log_trace>
    80002962:	00012797          	auipc	a5,0x12
    80002966:	c4e78793          	addi	a5,a5,-946 # 800145b0 <mcause_interrupt_table>
    8000296a:	00000717          	auipc	a4,0x0
    8000296e:	aea70713          	addi	a4,a4,-1302 # 80002454 <mach_plic_handler>
    80002972:	efb8                	sd	a4,88(a5)
    80002974:	45ad                	li	a1,11
    80002976:	00002517          	auipc	a0,0x2
    8000297a:	f9250513          	addi	a0,a0,-110 # 80004908 <__rodata_start+0x968>
    8000297e:	f1efe0ef          	jal	ra,8000109c <log_debug>
    80002982:	00012797          	auipc	a5,0x12
    80002986:	d3678793          	addi	a5,a5,-714 # 800146b8 <hart0_interrupt_matrix>
    8000298a:	0007a423          	sw	zero,8(a5)
    8000298e:	00012797          	auipc	a5,0x12
    80002992:	d2a78793          	addi	a5,a5,-726 # 800146b8 <hart0_interrupt_matrix>
    80002996:	0007a023          	sw	zero,0(a5)
    8000299a:	00012797          	auipc	a5,0x12
    8000299e:	d1e78793          	addi	a5,a5,-738 # 800146b8 <hart0_interrupt_matrix>
    800029a2:	0007a223          	sw	zero,4(a5)
    800029a6:	00012797          	auipc	a5,0x12
    800029aa:	d1278793          	addi	a5,a5,-750 # 800146b8 <hart0_interrupt_matrix>
    800029ae:	0007a623          	sw	zero,12(a5)
    800029b2:	4785                	li	a5,1
    800029b4:	fef42623          	sw	a5,-20(s0)
    800029b8:	a8c5                	j	80002aa8 <plic_init+0x15e>
    800029ba:	00012717          	auipc	a4,0x12
    800029be:	cfe70713          	addi	a4,a4,-770 # 800146b8 <hart0_interrupt_matrix>
    800029c2:	fec46783          	lwu	a5,-20(s0)
    800029c6:	0792                	slli	a5,a5,0x4
    800029c8:	97ba                	add	a5,a5,a4
    800029ca:	0007a423          	sw	zero,8(a5)
    800029ce:	00012717          	auipc	a4,0x12
    800029d2:	cea70713          	addi	a4,a4,-790 # 800146b8 <hart0_interrupt_matrix>
    800029d6:	fec46783          	lwu	a5,-20(s0)
    800029da:	0792                	slli	a5,a5,0x4
    800029dc:	97ba                	add	a5,a5,a4
    800029de:	fec42703          	lw	a4,-20(s0)
    800029e2:	c398                	sw	a4,0(a5)
    800029e4:	00012717          	auipc	a4,0x12
    800029e8:	cd470713          	addi	a4,a4,-812 # 800146b8 <hart0_interrupt_matrix>
    800029ec:	fec46783          	lwu	a5,-20(s0)
    800029f0:	0792                	slli	a5,a5,0x4
    800029f2:	97ba                	add	a5,a5,a4
    800029f4:	4709                	li	a4,2
    800029f6:	c3d8                	sw	a4,4(a5)
    800029f8:	00012717          	auipc	a4,0x12
    800029fc:	cc070713          	addi	a4,a4,-832 # 800146b8 <hart0_interrupt_matrix>
    80002a00:	fec46783          	lwu	a5,-20(s0)
    80002a04:	0792                	slli	a5,a5,0x4
    80002a06:	97ba                	add	a5,a5,a4
    80002a08:	0007a623          	sw	zero,12(a5)
    80002a0c:	00002517          	auipc	a0,0x2
    80002a10:	f2c50513          	addi	a0,a0,-212 # 80004938 <__rodata_start+0x998>
    80002a14:	e88fe0ef          	jal	ra,8000109c <log_debug>
    80002a18:	fec42783          	lw	a5,-20(s0)
    80002a1c:	853e                	mv	a0,a5
    80002a1e:	c85ff0ef          	jal	ra,800026a2 <interrupt_disable>
    80002a22:	00012717          	auipc	a4,0x12
    80002a26:	e3670713          	addi	a4,a4,-458 # 80014858 <isr_table>
    80002a2a:	fec46783          	lwu	a5,-20(s0)
    80002a2e:	078e                	slli	a5,a5,0x3
    80002a30:	97ba                	add	a5,a5,a4
    80002a32:	00000717          	auipc	a4,0x0
    80002a36:	b0870713          	addi	a4,a4,-1272 # 8000253a <isr_default>
    80002a3a:	e398                	sd	a4,0(a5)
    80002a3c:	fec42783          	lw	a5,-20(s0)
    80002a40:	85be                	mv	a1,a5
    80002a42:	4509                	li	a0,2
    80002a44:	dd5ff0ef          	jal	ra,80002818 <set_interrupt_priority>
    80002a48:	00012717          	auipc	a4,0x12
    80002a4c:	c7070713          	addi	a4,a4,-912 # 800146b8 <hart0_interrupt_matrix>
    80002a50:	fec46783          	lwu	a5,-20(s0)
    80002a54:	0792                	slli	a5,a5,0x4
    80002a56:	97ba                	add	a5,a5,a4
    80002a58:	438c                	lw	a1,0(a5)
    80002a5a:	00012717          	auipc	a4,0x12
    80002a5e:	c5e70713          	addi	a4,a4,-930 # 800146b8 <hart0_interrupt_matrix>
    80002a62:	fec46783          	lwu	a5,-20(s0)
    80002a66:	0792                	slli	a5,a5,0x4
    80002a68:	97ba                	add	a5,a5,a4
    80002a6a:	4790                	lw	a2,8(a5)
    80002a6c:	00012717          	auipc	a4,0x12
    80002a70:	c4c70713          	addi	a4,a4,-948 # 800146b8 <hart0_interrupt_matrix>
    80002a74:	fec46783          	lwu	a5,-20(s0)
    80002a78:	0792                	slli	a5,a5,0x4
    80002a7a:	97ba                	add	a5,a5,a4
    80002a7c:	43d4                	lw	a3,4(a5)
    80002a7e:	00012717          	auipc	a4,0x12
    80002a82:	c3a70713          	addi	a4,a4,-966 # 800146b8 <hart0_interrupt_matrix>
    80002a86:	fec46783          	lwu	a5,-20(s0)
    80002a8a:	0792                	slli	a5,a5,0x4
    80002a8c:	97ba                	add	a5,a5,a4
    80002a8e:	47dc                	lw	a5,12(a5)
    80002a90:	873e                	mv	a4,a5
    80002a92:	00002517          	auipc	a0,0x2
    80002a96:	ede50513          	addi	a0,a0,-290 # 80004970 <__rodata_start+0x9d0>
    80002a9a:	e02fe0ef          	jal	ra,8000109c <log_debug>
    80002a9e:	fec42783          	lw	a5,-20(s0)
    80002aa2:	2785                	addiw	a5,a5,1
    80002aa4:	fef42623          	sw	a5,-20(s0)
    80002aa8:	fec42783          	lw	a5,-20(s0)
    80002aac:	0007871b          	sext.w	a4,a5
    80002ab0:	47e5                	li	a5,25
    80002ab2:	f0e7f4e3          	bgeu	a5,a4,800029ba <plic_init+0x70>
    80002ab6:	4505                	li	a0,1
    80002ab8:	d07ff0ef          	jal	ra,800027be <set_interrupt_threshold>
    80002abc:	00002517          	auipc	a0,0x2
    80002ac0:	f4450513          	addi	a0,a0,-188 # 80004a00 <__rodata_start+0xa60>
    80002ac4:	d6afe0ef          	jal	ra,8000102e <log_trace>
    80002ac8:	0001                	nop
    80002aca:	60e2                	ld	ra,24(sp)
    80002acc:	6442                	ld	s0,16(sp)
    80002ace:	6105                	addi	sp,sp,32
    80002ad0:	8082                	ret

0000000080002ad2 <configure_interrupt>:
    80002ad2:	1101                	addi	sp,sp,-32
    80002ad4:	ec06                	sd	ra,24(sp)
    80002ad6:	e822                	sd	s0,16(sp)
    80002ad8:	1000                	addi	s0,sp,32
    80002ada:	87aa                	mv	a5,a0
    80002adc:	fef42623          	sw	a5,-20(s0)
    80002ae0:	00002517          	auipc	a0,0x2
    80002ae4:	f3850513          	addi	a0,a0,-200 # 80004a18 <__rodata_start+0xa78>
    80002ae8:	d46fe0ef          	jal	ra,8000102e <log_trace>
    80002aec:	fec42783          	lw	a5,-20(s0)
    80002af0:	0007871b          	sext.w	a4,a5
    80002af4:	4799                	li	a5,6
    80002af6:	00e7fe63          	bgeu	a5,a4,80002b12 <configure_interrupt+0x40>
    80002afa:	fec42783          	lw	a5,-20(s0)
    80002afe:	0007871b          	sext.w	a4,a5
    80002b02:	47d5                	li	a5,21
    80002b04:	00e7e763          	bltu	a5,a4,80002b12 <configure_interrupt+0x40>
    80002b08:	fec42783          	lw	a5,-20(s0)
    80002b0c:	853e                	mv	a0,a5
    80002b0e:	da5ff0ef          	jal	ra,800028b2 <configure_interrupt_pin>
    80002b12:	fec42783          	lw	a5,-20(s0)
    80002b16:	853e                	mv	a0,a5
    80002b18:	aabff0ef          	jal	ra,800025c2 <interrupt_enable>
    80002b1c:	00002517          	auipc	a0,0x2
    80002b20:	f1c50513          	addi	a0,a0,-228 # 80004a38 <__rodata_start+0xa98>
    80002b24:	d0afe0ef          	jal	ra,8000102e <log_trace>
    80002b28:	0001                	nop
    80002b2a:	60e2                	ld	ra,24(sp)
    80002b2c:	6442                	ld	s0,16(sp)
    80002b2e:	6105                	addi	sp,sp,32
    80002b30:	8082                	ret

0000000080002b32 <set_pwm_period_register>:
    80002b32:	7179                	addi	sp,sp,-48
    80002b34:	f406                	sd	ra,40(sp)
    80002b36:	f022                	sd	s0,32(sp)
    80002b38:	1800                	addi	s0,sp,48
    80002b3a:	87aa                	mv	a5,a0
    80002b3c:	872e                	mv	a4,a1
    80002b3e:	fcf42e23          	sw	a5,-36(s0)
    80002b42:	87ba                	mv	a5,a4
    80002b44:	fcf42c23          	sw	a5,-40(s0)
    80002b48:	fd842783          	lw	a5,-40(s0)
    80002b4c:	0007871b          	sext.w	a4,a5
    80002b50:	67c1                	lui	a5,0x10
    80002b52:	00f74d63          	blt	a4,a5,80002b6c <set_pwm_period_register+0x3a>
    80002b56:	67c1                	lui	a5,0x10
    80002b58:	fff78593          	addi	a1,a5,-1 # ffff <_tbss_end+0xffff>
    80002b5c:	00002517          	auipc	a0,0x2
    80002b60:	efc50513          	addi	a0,a0,-260 # 80004a58 <__rodata_start+0xab8>
    80002b64:	da6fe0ef          	jal	ra,8000110a <log_error>
    80002b68:	4781                	li	a5,0
    80002b6a:	a091                	j	80002bae <set_pwm_period_register+0x7c>
    80002b6c:	fdc42783          	lw	a5,-36(s0)
    80002b70:	3007879b          	addiw	a5,a5,768
    80002b74:	2781                	sext.w	a5,a5
    80002b76:	0087979b          	slliw	a5,a5,0x8
    80002b7a:	2781                	sext.w	a5,a5
    80002b7c:	fef43423          	sd	a5,-24(s0)
    80002b80:	fd842783          	lw	a5,-40(s0)
    80002b84:	0107971b          	slliw	a4,a5,0x10
    80002b88:	4107571b          	sraiw	a4,a4,0x10
    80002b8c:	fe843783          	ld	a5,-24(s0)
    80002b90:	00e79023          	sh	a4,0(a5)
    80002b94:	fd842703          	lw	a4,-40(s0)
    80002b98:	fdc42783          	lw	a5,-36(s0)
    80002b9c:	863a                	mv	a2,a4
    80002b9e:	85be                	mv	a1,a5
    80002ba0:	00002517          	auipc	a0,0x2
    80002ba4:	ef050513          	addi	a0,a0,-272 # 80004a90 <__rodata_start+0xaf0>
    80002ba8:	caafe0ef          	jal	ra,80001052 <log_info>
    80002bac:	4785                	li	a5,1
    80002bae:	853e                	mv	a0,a5
    80002bb0:	70a2                	ld	ra,40(sp)
    80002bb2:	7402                	ld	s0,32(sp)
    80002bb4:	6145                	addi	sp,sp,48
    80002bb6:	8082                	ret

0000000080002bb8 <set_pwm_duty_register>:
    80002bb8:	7179                	addi	sp,sp,-48
    80002bba:	f406                	sd	ra,40(sp)
    80002bbc:	f022                	sd	s0,32(sp)
    80002bbe:	1800                	addi	s0,sp,48
    80002bc0:	87aa                	mv	a5,a0
    80002bc2:	872e                	mv	a4,a1
    80002bc4:	fcf42e23          	sw	a5,-36(s0)
    80002bc8:	87ba                	mv	a5,a4
    80002bca:	fcf42c23          	sw	a5,-40(s0)
    80002bce:	fd842783          	lw	a5,-40(s0)
    80002bd2:	0007871b          	sext.w	a4,a5
    80002bd6:	67c1                	lui	a5,0x10
    80002bd8:	00f74d63          	blt	a4,a5,80002bf2 <set_pwm_duty_register+0x3a>
    80002bdc:	67c1                	lui	a5,0x10
    80002bde:	fff78593          	addi	a1,a5,-1 # ffff <_tbss_end+0xffff>
    80002be2:	00002517          	auipc	a0,0x2
    80002be6:	ede50513          	addi	a0,a0,-290 # 80004ac0 <__rodata_start+0xb20>
    80002bea:	d20fe0ef          	jal	ra,8000110a <log_error>
    80002bee:	4781                	li	a5,0
    80002bf0:	a0a1                	j	80002c38 <set_pwm_duty_register+0x80>
    80002bf2:	fdc42783          	lw	a5,-36(s0)
    80002bf6:	3007879b          	addiw	a5,a5,768
    80002bfa:	2781                	sext.w	a5,a5
    80002bfc:	0087979b          	slliw	a5,a5,0x8
    80002c00:	2781                	sext.w	a5,a5
    80002c02:	2791                	addiw	a5,a5,4
    80002c04:	2781                	sext.w	a5,a5
    80002c06:	fef43423          	sd	a5,-24(s0)
    80002c0a:	fd842783          	lw	a5,-40(s0)
    80002c0e:	0107971b          	slliw	a4,a5,0x10
    80002c12:	4107571b          	sraiw	a4,a4,0x10
    80002c16:	fe843783          	ld	a5,-24(s0)
    80002c1a:	00e79023          	sh	a4,0(a5)
    80002c1e:	fd842703          	lw	a4,-40(s0)
    80002c22:	fdc42783          	lw	a5,-36(s0)
    80002c26:	863a                	mv	a2,a4
    80002c28:	85be                	mv	a1,a5
    80002c2a:	00002517          	auipc	a0,0x2
    80002c2e:	ec650513          	addi	a0,a0,-314 # 80004af0 <__rodata_start+0xb50>
    80002c32:	c20fe0ef          	jal	ra,80001052 <log_info>
    80002c36:	4785                	li	a5,1
    80002c38:	853e                	mv	a0,a5
    80002c3a:	70a2                	ld	ra,40(sp)
    80002c3c:	7402                	ld	s0,32(sp)
    80002c3e:	6145                	addi	sp,sp,48
    80002c40:	8082                	ret

0000000080002c42 <set_pwm_control_register>:
    80002c42:	7179                	addi	sp,sp,-48
    80002c44:	f406                	sd	ra,40(sp)
    80002c46:	f022                	sd	s0,32(sp)
    80002c48:	1800                	addi	s0,sp,48
    80002c4a:	87aa                	mv	a5,a0
    80002c4c:	872e                	mv	a4,a1
    80002c4e:	fcf42e23          	sw	a5,-36(s0)
    80002c52:	87ba                	mv	a5,a4
    80002c54:	fcf42c23          	sw	a5,-40(s0)
    80002c58:	fd842783          	lw	a5,-40(s0)
    80002c5c:	0007871b          	sext.w	a4,a5
    80002c60:	0ff00793          	li	a5,255
    80002c64:	00e7dc63          	bge	a5,a4,80002c7c <set_pwm_control_register+0x3a>
    80002c68:	0ff00593          	li	a1,255
    80002c6c:	00002517          	auipc	a0,0x2
    80002c70:	eb450513          	addi	a0,a0,-332 # 80004b20 <__rodata_start+0xb80>
    80002c74:	c96fe0ef          	jal	ra,8000110a <log_error>
    80002c78:	4781                	li	a5,0
    80002c7a:	a091                	j	80002cbe <set_pwm_control_register+0x7c>
    80002c7c:	fdc42783          	lw	a5,-36(s0)
    80002c80:	3007879b          	addiw	a5,a5,768
    80002c84:	2781                	sext.w	a5,a5
    80002c86:	0087979b          	slliw	a5,a5,0x8
    80002c8a:	2781                	sext.w	a5,a5
    80002c8c:	27a1                	addiw	a5,a5,8
    80002c8e:	2781                	sext.w	a5,a5
    80002c90:	fef43423          	sd	a5,-24(s0)
    80002c94:	fd842783          	lw	a5,-40(s0)
    80002c98:	0ff7f713          	andi	a4,a5,255
    80002c9c:	fe843783          	ld	a5,-24(s0)
    80002ca0:	00e78023          	sb	a4,0(a5)
    80002ca4:	fd842703          	lw	a4,-40(s0)
    80002ca8:	fdc42783          	lw	a5,-36(s0)
    80002cac:	863a                	mv	a2,a4
    80002cae:	85be                	mv	a1,a5
    80002cb0:	00002517          	auipc	a0,0x2
    80002cb4:	ea850513          	addi	a0,a0,-344 # 80004b58 <__rodata_start+0xbb8>
    80002cb8:	b9afe0ef          	jal	ra,80001052 <log_info>
    80002cbc:	4785                	li	a5,1
    80002cbe:	853e                	mv	a0,a5
    80002cc0:	70a2                	ld	ra,40(sp)
    80002cc2:	7402                	ld	s0,32(sp)
    80002cc4:	6145                	addi	sp,sp,48
    80002cc6:	8082                	ret

0000000080002cc8 <pwm_check_continuous_mode>:
    80002cc8:	7179                	addi	sp,sp,-48
    80002cca:	f406                	sd	ra,40(sp)
    80002ccc:	f022                	sd	s0,32(sp)
    80002cce:	1800                	addi	s0,sp,48
    80002cd0:	87aa                	mv	a5,a0
    80002cd2:	fcf42e23          	sw	a5,-36(s0)
    80002cd6:	fdc42783          	lw	a5,-36(s0)
    80002cda:	3007879b          	addiw	a5,a5,768
    80002cde:	2781                	sext.w	a5,a5
    80002ce0:	0087979b          	slliw	a5,a5,0x8
    80002ce4:	2781                	sext.w	a5,a5
    80002ce6:	27a1                	addiw	a5,a5,8
    80002ce8:	2781                	sext.w	a5,a5
    80002cea:	fef43423          	sd	a5,-24(s0)
    80002cee:	fe843783          	ld	a5,-24(s0)
    80002cf2:	0007c783          	lbu	a5,0(a5)
    80002cf6:	0ff7f793          	andi	a5,a5,255
    80002cfa:	2781                	sext.w	a5,a5
    80002cfc:	8ba1                	andi	a5,a5,8
    80002cfe:	fef42223          	sw	a5,-28(s0)
    80002d02:	fe442783          	lw	a5,-28(s0)
    80002d06:	4037d79b          	sraiw	a5,a5,0x3
    80002d0a:	2781                	sext.w	a5,a5
    80002d0c:	85be                	mv	a1,a5
    80002d0e:	00002517          	auipc	a0,0x2
    80002d12:	e8250513          	addi	a0,a0,-382 # 80004b90 <__rodata_start+0xbf0>
    80002d16:	b3cfe0ef          	jal	ra,80001052 <log_info>
    80002d1a:	fe442783          	lw	a5,-28(s0)
    80002d1e:	4037d79b          	sraiw	a5,a5,0x3
    80002d22:	2781                	sext.w	a5,a5
    80002d24:	873e                	mv	a4,a5
    80002d26:	4785                	li	a5,1
    80002d28:	00f71463          	bne	a4,a5,80002d30 <pwm_check_continuous_mode+0x68>
    80002d2c:	4785                	li	a5,1
    80002d2e:	a011                	j	80002d32 <pwm_check_continuous_mode+0x6a>
    80002d30:	4781                	li	a5,0
    80002d32:	853e                	mv	a0,a5
    80002d34:	70a2                	ld	ra,40(sp)
    80002d36:	7402                	ld	s0,32(sp)
    80002d38:	6145                	addi	sp,sp,48
    80002d3a:	8082                	ret

0000000080002d3c <set_pwm_clock_register>:
    80002d3c:	7179                	addi	sp,sp,-48
    80002d3e:	f406                	sd	ra,40(sp)
    80002d40:	f022                	sd	s0,32(sp)
    80002d42:	1800                	addi	s0,sp,48
    80002d44:	87aa                	mv	a5,a0
    80002d46:	872e                	mv	a4,a1
    80002d48:	fcf42e23          	sw	a5,-36(s0)
    80002d4c:	87ba                	mv	a5,a4
    80002d4e:	fcf42c23          	sw	a5,-40(s0)
    80002d52:	fd842783          	lw	a5,-40(s0)
    80002d56:	0007871b          	sext.w	a4,a5
    80002d5a:	67c1                	lui	a5,0x10
    80002d5c:	00f74d63          	blt	a4,a5,80002d76 <set_pwm_clock_register+0x3a>
    80002d60:	67c1                	lui	a5,0x10
    80002d62:	fff78593          	addi	a1,a5,-1 # ffff <_tbss_end+0xffff>
    80002d66:	00002517          	auipc	a0,0x2
    80002d6a:	e5250513          	addi	a0,a0,-430 # 80004bb8 <__rodata_start+0xc18>
    80002d6e:	b9cfe0ef          	jal	ra,8000110a <log_error>
    80002d72:	4781                	li	a5,0
    80002d74:	a805                	j	80002da4 <set_pwm_clock_register+0x68>
    80002d76:	fdc42783          	lw	a5,-36(s0)
    80002d7a:	3007879b          	addiw	a5,a5,768
    80002d7e:	2781                	sext.w	a5,a5
    80002d80:	0087979b          	slliw	a5,a5,0x8
    80002d84:	2781                	sext.w	a5,a5
    80002d86:	27b1                	addiw	a5,a5,12
    80002d88:	2781                	sext.w	a5,a5
    80002d8a:	fef43423          	sd	a5,-24(s0)
    80002d8e:	fd842783          	lw	a5,-40(s0)
    80002d92:	0107971b          	slliw	a4,a5,0x10
    80002d96:	4107571b          	sraiw	a4,a4,0x10
    80002d9a:	fe843783          	ld	a5,-24(s0)
    80002d9e:	00e79023          	sh	a4,0(a5)
    80002da2:	4785                	li	a5,1
    80002da4:	853e                	mv	a0,a5
    80002da6:	70a2                	ld	ra,40(sp)
    80002da8:	7402                	ld	s0,32(sp)
    80002daa:	6145                	addi	sp,sp,48
    80002dac:	8082                	ret

0000000080002dae <pwm_clear_registers>:
    80002dae:	1101                	addi	sp,sp,-32
    80002db0:	ec06                	sd	ra,24(sp)
    80002db2:	e822                	sd	s0,16(sp)
    80002db4:	1000                	addi	s0,sp,32
    80002db6:	87aa                	mv	a5,a0
    80002db8:	fef42623          	sw	a5,-20(s0)
    80002dbc:	fec42783          	lw	a5,-20(s0)
    80002dc0:	4581                	li	a1,0
    80002dc2:	853e                	mv	a0,a5
    80002dc4:	d6fff0ef          	jal	ra,80002b32 <set_pwm_period_register>
    80002dc8:	fec42783          	lw	a5,-20(s0)
    80002dcc:	4581                	li	a1,0
    80002dce:	853e                	mv	a0,a5
    80002dd0:	de9ff0ef          	jal	ra,80002bb8 <set_pwm_duty_register>
    80002dd4:	fec42783          	lw	a5,-20(s0)
    80002dd8:	4581                	li	a1,0
    80002dda:	853e                	mv	a0,a5
    80002ddc:	e67ff0ef          	jal	ra,80002c42 <set_pwm_control_register>
    80002de0:	fec42783          	lw	a5,-20(s0)
    80002de4:	4581                	li	a1,0
    80002de6:	853e                	mv	a0,a5
    80002de8:	f55ff0ef          	jal	ra,80002d3c <set_pwm_clock_register>
    80002dec:	fec42783          	lw	a5,-20(s0)
    80002df0:	85be                	mv	a1,a5
    80002df2:	00002517          	auipc	a0,0x2
    80002df6:	dfe50513          	addi	a0,a0,-514 # 80004bf0 <__rodata_start+0xc50>
    80002dfa:	a58fe0ef          	jal	ra,80001052 <log_info>
    80002dfe:	0001                	nop
    80002e00:	60e2                	ld	ra,24(sp)
    80002e02:	6442                	ld	s0,16(sp)
    80002e04:	6105                	addi	sp,sp,32
    80002e06:	8082                	ret

0000000080002e08 <pwm_init>:
    80002e08:	1101                	addi	sp,sp,-32
    80002e0a:	ec06                	sd	ra,24(sp)
    80002e0c:	e822                	sd	s0,16(sp)
    80002e0e:	1000                	addi	s0,sp,32
    80002e10:	fe042623          	sw	zero,-20(s0)
    80002e14:	a819                	j	80002e2a <pwm_init+0x22>
    80002e16:	fec42783          	lw	a5,-20(s0)
    80002e1a:	853e                	mv	a0,a5
    80002e1c:	f93ff0ef          	jal	ra,80002dae <pwm_clear_registers>
    80002e20:	fec42783          	lw	a5,-20(s0)
    80002e24:	2785                	addiw	a5,a5,1
    80002e26:	fef42623          	sw	a5,-20(s0)
    80002e2a:	fec42783          	lw	a5,-20(s0)
    80002e2e:	0007871b          	sext.w	a4,a5
    80002e32:	4791                	li	a5,4
    80002e34:	fee7d1e3          	bge	a5,a4,80002e16 <pwm_init+0xe>
    80002e38:	00002517          	auipc	a0,0x2
    80002e3c:	de850513          	addi	a0,a0,-536 # 80004c20 <__rodata_start+0xc80>
    80002e40:	a12fe0ef          	jal	ra,80001052 <log_info>
    80002e44:	0001                	nop
    80002e46:	60e2                	ld	ra,24(sp)
    80002e48:	6442                	ld	s0,16(sp)
    80002e4a:	6105                	addi	sp,sp,32
    80002e4c:	8082                	ret

0000000080002e4e <configure_control_register_mode>:
    80002e4e:	7179                	addi	sp,sp,-48
    80002e50:	f406                	sd	ra,40(sp)
    80002e52:	f022                	sd	s0,32(sp)
    80002e54:	1800                	addi	s0,sp,48
    80002e56:	87aa                	mv	a5,a0
    80002e58:	fcf42e23          	sw	a5,-36(s0)
    80002e5c:	fe042623          	sw	zero,-20(s0)
    80002e60:	fdc42783          	lw	a5,-36(s0)
    80002e64:	2781                	sext.w	a5,a5
    80002e66:	e79d                	bnez	a5,80002e94 <configure_control_register_mode+0x46>
    80002e68:	00002517          	auipc	a0,0x2
    80002e6c:	de850513          	addi	a0,a0,-536 # 80004c50 <__rodata_start+0xcb0>
    80002e70:	9e2fe0ef          	jal	ra,80001052 <log_info>
    80002e74:	fec42783          	lw	a5,-20(s0)
    80002e78:	2789                	addiw	a5,a5,2
    80002e7a:	fef42623          	sw	a5,-20(s0)
    80002e7e:	fec42783          	lw	a5,-20(s0)
    80002e82:	2791                	addiw	a5,a5,4
    80002e84:	fef42623          	sw	a5,-20(s0)
    80002e88:	fec42783          	lw	a5,-20(s0)
    80002e8c:	27c1                	addiw	a5,a5,16
    80002e8e:	fef42623          	sw	a5,-20(s0)
    80002e92:	a899                	j	80002ee8 <configure_control_register_mode+0x9a>
    80002e94:	fdc42783          	lw	a5,-36(s0)
    80002e98:	0007871b          	sext.w	a4,a5
    80002e9c:	4785                	li	a5,1
    80002e9e:	00f71e63          	bne	a4,a5,80002eba <configure_control_register_mode+0x6c>
    80002ea2:	00002517          	auipc	a0,0x2
    80002ea6:	dd650513          	addi	a0,a0,-554 # 80004c78 <__rodata_start+0xcd8>
    80002eaa:	9a8fe0ef          	jal	ra,80001052 <log_info>
    80002eae:	fec42783          	lw	a5,-20(s0)
    80002eb2:	2791                	addiw	a5,a5,4
    80002eb4:	fef42623          	sw	a5,-20(s0)
    80002eb8:	a805                	j	80002ee8 <configure_control_register_mode+0x9a>
    80002eba:	fdc42783          	lw	a5,-36(s0)
    80002ebe:	0007871b          	sext.w	a4,a5
    80002ec2:	4789                	li	a5,2
    80002ec4:	02f71263          	bne	a4,a5,80002ee8 <configure_control_register_mode+0x9a>
    80002ec8:	00002517          	auipc	a0,0x2
    80002ecc:	de050513          	addi	a0,a0,-544 # 80004ca8 <__rodata_start+0xd08>
    80002ed0:	982fe0ef          	jal	ra,80001052 <log_info>
    80002ed4:	fec42783          	lw	a5,-20(s0)
    80002ed8:	2791                	addiw	a5,a5,4
    80002eda:	fef42623          	sw	a5,-20(s0)
    80002ede:	fec42783          	lw	a5,-20(s0)
    80002ee2:	27a1                	addiw	a5,a5,8
    80002ee4:	fef42623          	sw	a5,-20(s0)
    80002ee8:	fec42783          	lw	a5,-20(s0)
    80002eec:	853e                	mv	a0,a5
    80002eee:	70a2                	ld	ra,40(sp)
    80002ef0:	7402                	ld	s0,32(sp)
    80002ef2:	6145                	addi	sp,sp,48
    80002ef4:	8082                	ret

0000000080002ef6 <pwm_start>:
    80002ef6:	7179                	addi	sp,sp,-48
    80002ef8:	f406                	sd	ra,40(sp)
    80002efa:	f022                	sd	s0,32(sp)
    80002efc:	1800                	addi	s0,sp,48
    80002efe:	87aa                	mv	a5,a0
    80002f00:	872e                	mv	a4,a1
    80002f02:	fcf42e23          	sw	a5,-36(s0)
    80002f06:	87ba                	mv	a5,a4
    80002f08:	fcf42c23          	sw	a5,-40(s0)
    80002f0c:	fd842783          	lw	a5,-40(s0)
    80002f10:	853e                	mv	a0,a5
    80002f12:	f3dff0ef          	jal	ra,80002e4e <configure_control_register_mode>
    80002f16:	87aa                	mv	a5,a0
    80002f18:	fef42623          	sw	a5,-20(s0)
    80002f1c:	fec42703          	lw	a4,-20(s0)
    80002f20:	fdc42783          	lw	a5,-36(s0)
    80002f24:	85ba                	mv	a1,a4
    80002f26:	853e                	mv	a0,a5
    80002f28:	d1bff0ef          	jal	ra,80002c42 <set_pwm_control_register>
    80002f2c:	87aa                	mv	a5,a0
    80002f2e:	cb91                	beqz	a5,80002f42 <pwm_start+0x4c>
    80002f30:	fdc42783          	lw	a5,-36(s0)
    80002f34:	85be                	mv	a1,a5
    80002f36:	00002517          	auipc	a0,0x2
    80002f3a:	daa50513          	addi	a0,a0,-598 # 80004ce0 <__rodata_start+0xd40>
    80002f3e:	914fe0ef          	jal	ra,80001052 <log_info>
    80002f42:	fec42703          	lw	a4,-20(s0)
    80002f46:	fdc42783          	lw	a5,-36(s0)
    80002f4a:	85ba                	mv	a1,a4
    80002f4c:	853e                	mv	a0,a5
    80002f4e:	cf5ff0ef          	jal	ra,80002c42 <set_pwm_control_register>
    80002f52:	87aa                	mv	a5,a0
    80002f54:	eb91                	bnez	a5,80002f68 <pwm_start+0x72>
    80002f56:	fdc42783          	lw	a5,-36(s0)
    80002f5a:	85be                	mv	a1,a5
    80002f5c:	00002517          	auipc	a0,0x2
    80002f60:	dac50513          	addi	a0,a0,-596 # 80004d08 <__rodata_start+0xd68>
    80002f64:	9a6fe0ef          	jal	ra,8000110a <log_error>
    80002f68:	0001                	nop
    80002f6a:	70a2                	ld	ra,40(sp)
    80002f6c:	7402                	ld	s0,32(sp)
    80002f6e:	6145                	addi	sp,sp,48
    80002f70:	8082                	ret

0000000080002f72 <pwm_use_external_clock>:
    80002f72:	7179                	addi	sp,sp,-48
    80002f74:	f422                	sd	s0,40(sp)
    80002f76:	1800                	addi	s0,sp,48
    80002f78:	87aa                	mv	a5,a0
    80002f7a:	872e                	mv	a4,a1
    80002f7c:	fcf42e23          	sw	a5,-36(s0)
    80002f80:	87ba                	mv	a5,a4
    80002f82:	fcf40da3          	sb	a5,-37(s0)
    80002f86:	fdc42783          	lw	a5,-36(s0)
    80002f8a:	3007879b          	addiw	a5,a5,768
    80002f8e:	2781                	sext.w	a5,a5
    80002f90:	0087979b          	slliw	a5,a5,0x8
    80002f94:	2781                	sext.w	a5,a5
    80002f96:	27a1                	addiw	a5,a5,8
    80002f98:	2781                	sext.w	a5,a5
    80002f9a:	fef43423          	sd	a5,-24(s0)
    80002f9e:	fdb44783          	lbu	a5,-37(s0)
    80002fa2:	0ff7f793          	andi	a5,a5,255
    80002fa6:	c799                	beqz	a5,80002fb4 <pwm_use_external_clock+0x42>
    80002fa8:	fe843783          	ld	a5,-24(s0)
    80002fac:	0785                	addi	a5,a5,1
    80002fae:	fef43423          	sd	a5,-24(s0)
    80002fb2:	a809                	j	80002fc4 <pwm_use_external_clock+0x52>
    80002fb4:	fe843783          	ld	a5,-24(s0)
    80002fb8:	c791                	beqz	a5,80002fc4 <pwm_use_external_clock+0x52>
    80002fba:	fe843783          	ld	a5,-24(s0)
    80002fbe:	17fd                	addi	a5,a5,-1
    80002fc0:	fef43423          	sd	a5,-24(s0)
    80002fc4:	0001                	nop
    80002fc6:	7422                	ld	s0,40(sp)
    80002fc8:	6145                	addi	sp,sp,48
    80002fca:	8082                	ret

0000000080002fcc <pwm_set_clock>:
    80002fcc:	1101                	addi	sp,sp,-32
    80002fce:	ec06                	sd	ra,24(sp)
    80002fd0:	e822                	sd	s0,16(sp)
    80002fd2:	1000                	addi	s0,sp,32
    80002fd4:	87aa                	mv	a5,a0
    80002fd6:	872e                	mv	a4,a1
    80002fd8:	fef42623          	sw	a5,-20(s0)
    80002fdc:	87ba                	mv	a5,a4
    80002fde:	fef42423          	sw	a5,-24(s0)
    80002fe2:	fe842703          	lw	a4,-24(s0)
    80002fe6:	fec42783          	lw	a5,-20(s0)
    80002fea:	85ba                	mv	a1,a4
    80002fec:	853e                	mv	a0,a5
    80002fee:	d4fff0ef          	jal	ra,80002d3c <set_pwm_clock_register>
    80002ff2:	87aa                	mv	a5,a0
    80002ff4:	e799                	bnez	a5,80003002 <pwm_set_clock+0x36>
    80002ff6:	00002517          	auipc	a0,0x2
    80002ffa:	d3a50513          	addi	a0,a0,-710 # 80004d30 <__rodata_start+0xd90>
    80002ffe:	90cfe0ef          	jal	ra,8000110a <log_error>
    80003002:	0001                	nop
    80003004:	60e2                	ld	ra,24(sp)
    80003006:	6442                	ld	s0,16(sp)
    80003008:	6105                	addi	sp,sp,32
    8000300a:	8082                	ret

000000008000300c <pwm_set_duty_cycle>:
    8000300c:	1101                	addi	sp,sp,-32
    8000300e:	ec06                	sd	ra,24(sp)
    80003010:	e822                	sd	s0,16(sp)
    80003012:	1000                	addi	s0,sp,32
    80003014:	87aa                	mv	a5,a0
    80003016:	872e                	mv	a4,a1
    80003018:	fef42623          	sw	a5,-20(s0)
    8000301c:	87ba                	mv	a5,a4
    8000301e:	fef42423          	sw	a5,-24(s0)
    80003022:	fe842703          	lw	a4,-24(s0)
    80003026:	fec42783          	lw	a5,-20(s0)
    8000302a:	85ba                	mv	a1,a4
    8000302c:	853e                	mv	a0,a5
    8000302e:	b8bff0ef          	jal	ra,80002bb8 <set_pwm_duty_register>
    80003032:	87aa                	mv	a5,a0
    80003034:	e799                	bnez	a5,80003042 <pwm_set_duty_cycle+0x36>
    80003036:	00002517          	auipc	a0,0x2
    8000303a:	d2250513          	addi	a0,a0,-734 # 80004d58 <__rodata_start+0xdb8>
    8000303e:	8ccfe0ef          	jal	ra,8000110a <log_error>
    80003042:	0001                	nop
    80003044:	60e2                	ld	ra,24(sp)
    80003046:	6442                	ld	s0,16(sp)
    80003048:	6105                	addi	sp,sp,32
    8000304a:	8082                	ret

000000008000304c <pwm_set_periodic_cycle>:
    8000304c:	1101                	addi	sp,sp,-32
    8000304e:	ec06                	sd	ra,24(sp)
    80003050:	e822                	sd	s0,16(sp)
    80003052:	1000                	addi	s0,sp,32
    80003054:	87aa                	mv	a5,a0
    80003056:	872e                	mv	a4,a1
    80003058:	fef42623          	sw	a5,-20(s0)
    8000305c:	87ba                	mv	a5,a4
    8000305e:	fef42423          	sw	a5,-24(s0)
    80003062:	fe842703          	lw	a4,-24(s0)
    80003066:	fec42783          	lw	a5,-20(s0)
    8000306a:	85ba                	mv	a1,a4
    8000306c:	853e                	mv	a0,a5
    8000306e:	ac5ff0ef          	jal	ra,80002b32 <set_pwm_period_register>
    80003072:	87aa                	mv	a5,a0
    80003074:	e799                	bnez	a5,80003082 <pwm_set_periodic_cycle+0x36>
    80003076:	00002517          	auipc	a0,0x2
    8000307a:	d0a50513          	addi	a0,a0,-758 # 80004d80 <__rodata_start+0xde0>
    8000307e:	88cfe0ef          	jal	ra,8000110a <log_error>
    80003082:	0001                	nop
    80003084:	60e2                	ld	ra,24(sp)
    80003086:	6442                	ld	s0,16(sp)
    80003088:	6105                	addi	sp,sp,32
    8000308a:	8082                	ret

000000008000308c <pwm_configure>:
    8000308c:	7179                	addi	sp,sp,-48
    8000308e:	f406                	sd	ra,40(sp)
    80003090:	f022                	sd	s0,32(sp)
    80003092:	1800                	addi	s0,sp,48
    80003094:	87aa                	mv	a5,a0
    80003096:	fef42623          	sw	a5,-20(s0)
    8000309a:	87ae                	mv	a5,a1
    8000309c:	fef42423          	sw	a5,-24(s0)
    800030a0:	87b2                	mv	a5,a2
    800030a2:	fef42223          	sw	a5,-28(s0)
    800030a6:	87b6                	mv	a5,a3
    800030a8:	fef42023          	sw	a5,-32(s0)
    800030ac:	87ba                	mv	a5,a4
    800030ae:	fcf40fa3          	sb	a5,-33(s0)
    800030b2:	fe442703          	lw	a4,-28(s0)
    800030b6:	fec42783          	lw	a5,-20(s0)
    800030ba:	85ba                	mv	a1,a4
    800030bc:	853e                	mv	a0,a5
    800030be:	f8fff0ef          	jal	ra,8000304c <pwm_set_periodic_cycle>
    800030c2:	fe042703          	lw	a4,-32(s0)
    800030c6:	fec42783          	lw	a5,-20(s0)
    800030ca:	85ba                	mv	a1,a4
    800030cc:	853e                	mv	a0,a5
    800030ce:	f3fff0ef          	jal	ra,8000300c <pwm_set_duty_cycle>
    800030d2:	fe842703          	lw	a4,-24(s0)
    800030d6:	fec42783          	lw	a5,-20(s0)
    800030da:	85ba                	mv	a1,a4
    800030dc:	853e                	mv	a0,a5
    800030de:	eefff0ef          	jal	ra,80002fcc <pwm_set_clock>
    800030e2:	fdf44703          	lbu	a4,-33(s0)
    800030e6:	fec42783          	lw	a5,-20(s0)
    800030ea:	85ba                	mv	a1,a4
    800030ec:	853e                	mv	a0,a5
    800030ee:	e85ff0ef          	jal	ra,80002f72 <pwm_use_external_clock>
    800030f2:	fec42783          	lw	a5,-20(s0)
    800030f6:	85be                	mv	a1,a5
    800030f8:	00002517          	auipc	a0,0x2
    800030fc:	cb050513          	addi	a0,a0,-848 # 80004da8 <__rodata_start+0xe08>
    80003100:	f53fd0ef          	jal	ra,80001052 <log_info>
    80003104:	0001                	nop
    80003106:	70a2                	ld	ra,40(sp)
    80003108:	7402                	ld	s0,32(sp)
    8000310a:	6145                	addi	sp,sp,48
    8000310c:	8082                	ret

000000008000310e <pwm_stop>:
    8000310e:	1101                	addi	sp,sp,-32
    80003110:	ec06                	sd	ra,24(sp)
    80003112:	e822                	sd	s0,16(sp)
    80003114:	1000                	addi	s0,sp,32
    80003116:	87aa                	mv	a5,a0
    80003118:	fef42623          	sw	a5,-20(s0)
    8000311c:	fec42783          	lw	a5,-20(s0)
    80003120:	4581                	li	a1,0
    80003122:	853e                	mv	a0,a5
    80003124:	b1fff0ef          	jal	ra,80002c42 <set_pwm_control_register>
    80003128:	fec42783          	lw	a5,-20(s0)
    8000312c:	85be                	mv	a1,a5
    8000312e:	00002517          	auipc	a0,0x2
    80003132:	c9a50513          	addi	a0,a0,-870 # 80004dc8 <__rodata_start+0xe28>
    80003136:	f1dfd0ef          	jal	ra,80001052 <log_info>
    8000313a:	0001                	nop
    8000313c:	60e2                	ld	ra,24(sp)
    8000313e:	6442                	ld	s0,16(sp)
    80003140:	6105                	addi	sp,sp,32
    80003142:	8082                	ret

0000000080003144 <show_register_values>:
    80003144:	7139                	addi	sp,sp,-64
    80003146:	fc06                	sd	ra,56(sp)
    80003148:	f822                	sd	s0,48(sp)
    8000314a:	0080                	addi	s0,sp,64
    8000314c:	87aa                	mv	a5,a0
    8000314e:	fcf42623          	sw	a5,-52(s0)
    80003152:	fcc42783          	lw	a5,-52(s0)
    80003156:	3007879b          	addiw	a5,a5,768
    8000315a:	2781                	sext.w	a5,a5
    8000315c:	0087979b          	slliw	a5,a5,0x8
    80003160:	2781                	sext.w	a5,a5
    80003162:	fef43423          	sd	a5,-24(s0)
    80003166:	fcc42783          	lw	a5,-52(s0)
    8000316a:	3007879b          	addiw	a5,a5,768
    8000316e:	2781                	sext.w	a5,a5
    80003170:	0087979b          	slliw	a5,a5,0x8
    80003174:	2781                	sext.w	a5,a5
    80003176:	2791                	addiw	a5,a5,4
    80003178:	2781                	sext.w	a5,a5
    8000317a:	fef43023          	sd	a5,-32(s0)
    8000317e:	fcc42783          	lw	a5,-52(s0)
    80003182:	3007879b          	addiw	a5,a5,768
    80003186:	2781                	sext.w	a5,a5
    80003188:	0087979b          	slliw	a5,a5,0x8
    8000318c:	2781                	sext.w	a5,a5
    8000318e:	27a1                	addiw	a5,a5,8
    80003190:	2781                	sext.w	a5,a5
    80003192:	fcf43c23          	sd	a5,-40(s0)
    80003196:	fcc42783          	lw	a5,-52(s0)
    8000319a:	3007879b          	addiw	a5,a5,768
    8000319e:	2781                	sext.w	a5,a5
    800031a0:	0087979b          	slliw	a5,a5,0x8
    800031a4:	2781                	sext.w	a5,a5
    800031a6:	27b1                	addiw	a5,a5,12
    800031a8:	2781                	sext.w	a5,a5
    800031aa:	fcf43823          	sd	a5,-48(s0)
    800031ae:	fe843783          	ld	a5,-24(s0)
    800031b2:	0007d783          	lhu	a5,0(a5)
    800031b6:	17c2                	slli	a5,a5,0x30
    800031b8:	93c1                	srli	a5,a5,0x30
    800031ba:	2781                	sext.w	a5,a5
    800031bc:	85be                	mv	a1,a5
    800031be:	00002517          	auipc	a0,0x2
    800031c2:	c3250513          	addi	a0,a0,-974 # 80004df0 <__rodata_start+0xe50>
    800031c6:	e8dfd0ef          	jal	ra,80001052 <log_info>
    800031ca:	fe043783          	ld	a5,-32(s0)
    800031ce:	0007d783          	lhu	a5,0(a5)
    800031d2:	17c2                	slli	a5,a5,0x30
    800031d4:	93c1                	srli	a5,a5,0x30
    800031d6:	2781                	sext.w	a5,a5
    800031d8:	85be                	mv	a1,a5
    800031da:	00002517          	auipc	a0,0x2
    800031de:	c3e50513          	addi	a0,a0,-962 # 80004e18 <__rodata_start+0xe78>
    800031e2:	e71fd0ef          	jal	ra,80001052 <log_info>
    800031e6:	fd843783          	ld	a5,-40(s0)
    800031ea:	0007c783          	lbu	a5,0(a5)
    800031ee:	0ff7f793          	andi	a5,a5,255
    800031f2:	2781                	sext.w	a5,a5
    800031f4:	85be                	mv	a1,a5
    800031f6:	00002517          	auipc	a0,0x2
    800031fa:	c4a50513          	addi	a0,a0,-950 # 80004e40 <__rodata_start+0xea0>
    800031fe:	e55fd0ef          	jal	ra,80001052 <log_info>
    80003202:	fd043783          	ld	a5,-48(s0)
    80003206:	0007d783          	lhu	a5,0(a5)
    8000320a:	17c2                	slli	a5,a5,0x30
    8000320c:	93c1                	srli	a5,a5,0x30
    8000320e:	2781                	sext.w	a5,a5
    80003210:	85be                	mv	a1,a5
    80003212:	00002517          	auipc	a0,0x2
    80003216:	c5650513          	addi	a0,a0,-938 # 80004e68 <__rodata_start+0xec8>
    8000321a:	e39fd0ef          	jal	ra,80001052 <log_info>
    8000321e:	0001                	nop
    80003220:	70e2                	ld	ra,56(sp)
    80003222:	7442                	ld	s0,48(sp)
    80003224:	6121                	addi	sp,sp,64
    80003226:	8082                	ret

0000000080003228 <__adddf3>:
    80003228:	1101                	addi	sp,sp,-32
    8000322a:	587d                	li	a6,-1
    8000322c:	00c85713          	srli	a4,a6,0xc
    80003230:	0345d613          	srli	a2,a1,0x34
    80003234:	e822                	sd	s0,16(sp)
    80003236:	03455413          	srli	s0,a0,0x34
    8000323a:	00a777b3          	and	a5,a4,a0
    8000323e:	e426                	sd	s1,8(sp)
    80003240:	8f6d                	and	a4,a4,a1
    80003242:	7ff47413          	andi	s0,s0,2047
    80003246:	7ff67613          	andi	a2,a2,2047
    8000324a:	ec06                	sd	ra,24(sp)
    8000324c:	e04a                	sd	s2,0(sp)
    8000324e:	03f55493          	srli	s1,a0,0x3f
    80003252:	91fd                	srli	a1,a1,0x3f
    80003254:	078e                	slli	a5,a5,0x3
    80003256:	070e                	slli	a4,a4,0x3
    80003258:	40c406bb          	subw	a3,s0,a2
    8000325c:	12b49c63          	bne	s1,a1,80003394 <__adddf3+0x16c>
    80003260:	0006859b          	sext.w	a1,a3
    80003264:	08b05463          	blez	a1,800032ec <__adddf3+0xc4>
    80003268:	ea21                	bnez	a2,800032b8 <__adddf3+0x90>
    8000326a:	cf05                	beqz	a4,800032a2 <__adddf3+0x7a>
    8000326c:	fff6859b          	addiw	a1,a3,-1
    80003270:	e58d                	bnez	a1,8000329a <__adddf3+0x72>
    80003272:	97ba                	add	a5,a5,a4
    80003274:	00879713          	slli	a4,a5,0x8
    80003278:	02075563          	bgez	a4,800032a2 <__adddf3+0x7a>
    8000327c:	0405                	addi	s0,s0,1
    8000327e:	7ff00713          	li	a4,2047
    80003282:	28e40463          	beq	s0,a4,8000350a <__adddf3+0x2e2>
    80003286:	1ff00713          	li	a4,511
    8000328a:	175a                	slli	a4,a4,0x36
    8000328c:	0017f693          	andi	a3,a5,1
    80003290:	177d                	addi	a4,a4,-1
    80003292:	8385                	srli	a5,a5,0x1
    80003294:	8ff9                	and	a5,a5,a4
    80003296:	8fd5                	or	a5,a5,a3
    80003298:	a029                	j	800032a2 <__adddf3+0x7a>
    8000329a:	7ff00693          	li	a3,2047
    8000329e:	02d41463          	bne	s0,a3,800032c6 <__adddf3+0x9e>
    800032a2:	0077f713          	andi	a4,a5,7
    800032a6:	26070363          	beqz	a4,8000350c <__adddf3+0x2e4>
    800032aa:	00f7f713          	andi	a4,a5,15
    800032ae:	4691                	li	a3,4
    800032b0:	24d70e63          	beq	a4,a3,8000350c <__adddf3+0x2e4>
    800032b4:	0791                	addi	a5,a5,4
    800032b6:	ac99                	j	8000350c <__adddf3+0x2e4>
    800032b8:	7ff00693          	li	a3,2047
    800032bc:	fed403e3          	beq	s0,a3,800032a2 <__adddf3+0x7a>
    800032c0:	4685                	li	a3,1
    800032c2:	16de                	slli	a3,a3,0x37
    800032c4:	8f55                	or	a4,a4,a3
    800032c6:	03800613          	li	a2,56
    800032ca:	4685                	li	a3,1
    800032cc:	00b64e63          	blt	a2,a1,800032e8 <__adddf3+0xc0>
    800032d0:	04000693          	li	a3,64
    800032d4:	00b75633          	srl	a2,a4,a1
    800032d8:	40b685bb          	subw	a1,a3,a1
    800032dc:	00b71733          	sll	a4,a4,a1
    800032e0:	00e03733          	snez	a4,a4
    800032e4:	00e666b3          	or	a3,a2,a4
    800032e8:	97b6                	add	a5,a5,a3
    800032ea:	b769                	j	80003274 <__adddf3+0x4c>
    800032ec:	cdb1                	beqz	a1,80003348 <__adddf3+0x120>
    800032ee:	e039                	bnez	s0,80003334 <__adddf3+0x10c>
    800032f0:	20078463          	beqz	a5,800034f8 <__adddf3+0x2d0>
    800032f4:	01059563          	bne	a1,a6,800032fe <__adddf3+0xd6>
    800032f8:	97ba                	add	a5,a5,a4
    800032fa:	8432                	mv	s0,a2
    800032fc:	bfa5                	j	80003274 <__adddf3+0x4c>
    800032fe:	7ff00593          	li	a1,2047
    80003302:	20b60063          	beq	a2,a1,80003502 <__adddf3+0x2da>
    80003306:	fff6c693          	not	a3,a3
    8000330a:	2681                	sext.w	a3,a3
    8000330c:	03800513          	li	a0,56
    80003310:	4585                	li	a1,1
    80003312:	00d54e63          	blt	a0,a3,8000332e <__adddf3+0x106>
    80003316:	04000593          	li	a1,64
    8000331a:	00d7d533          	srl	a0,a5,a3
    8000331e:	40d586bb          	subw	a3,a1,a3
    80003322:	00d797b3          	sll	a5,a5,a3
    80003326:	00f037b3          	snez	a5,a5
    8000332a:	00f565b3          	or	a1,a0,a5
    8000332e:	00e587b3          	add	a5,a1,a4
    80003332:	b7e1                	j	800032fa <__adddf3+0xd2>
    80003334:	7ff00593          	li	a1,2047
    80003338:	1cb60563          	beq	a2,a1,80003502 <__adddf3+0x2da>
    8000333c:	4585                	li	a1,1
    8000333e:	15de                	slli	a1,a1,0x37
    80003340:	40d006bb          	negw	a3,a3
    80003344:	8fcd                	or	a5,a5,a1
    80003346:	b7d9                	j	8000330c <__adddf3+0xe4>
    80003348:	00140693          	addi	a3,s0,1
    8000334c:	7fe6f613          	andi	a2,a3,2046
    80003350:	ea15                	bnez	a2,80003384 <__adddf3+0x15c>
    80003352:	ec19                	bnez	s0,80003370 <__adddf3+0x148>
    80003354:	1a078563          	beqz	a5,800034fe <__adddf3+0x2d6>
    80003358:	d729                	beqz	a4,800032a2 <__adddf3+0x7a>
    8000335a:	97ba                	add	a5,a5,a4
    8000335c:	00879713          	slli	a4,a5,0x8
    80003360:	f40751e3          	bgez	a4,800032a2 <__adddf3+0x7a>
    80003364:	185e                	slli	a6,a6,0x37
    80003366:	187d                	addi	a6,a6,-1
    80003368:	0107f7b3          	and	a5,a5,a6
    8000336c:	4405                	li	s0,1
    8000336e:	bf15                	j	800032a2 <__adddf3+0x7a>
    80003370:	18078963          	beqz	a5,80003502 <__adddf3+0x2da>
    80003374:	12070063          	beqz	a4,80003494 <__adddf3+0x26c>
    80003378:	4785                	li	a5,1
    8000337a:	4481                	li	s1,0
    8000337c:	17da                	slli	a5,a5,0x36
    8000337e:	7ff00413          	li	s0,2047
    80003382:	a269                	j	8000350c <__adddf3+0x2e4>
    80003384:	7ff00613          	li	a2,2047
    80003388:	16c68f63          	beq	a3,a2,80003506 <__adddf3+0x2de>
    8000338c:	97ba                	add	a5,a5,a4
    8000338e:	8385                	srli	a5,a5,0x1
    80003390:	8436                	mv	s0,a3
    80003392:	bf01                	j	800032a2 <__adddf3+0x7a>
    80003394:	0006851b          	sext.w	a0,a3
    80003398:	04a05f63          	blez	a0,800033f6 <__adddf3+0x1ce>
    8000339c:	e629                	bnez	a2,800033e6 <__adddf3+0x1be>
    8000339e:	d311                	beqz	a4,800032a2 <__adddf3+0x7a>
    800033a0:	fff6851b          	addiw	a0,a3,-1
    800033a4:	e911                	bnez	a0,800033b8 <__adddf3+0x190>
    800033a6:	8f99                	sub	a5,a5,a4
    800033a8:	00879713          	slli	a4,a5,0x8
    800033ac:	ee075be3          	bgez	a4,800032a2 <__adddf3+0x7a>
    800033b0:	07a6                	slli	a5,a5,0x9
    800033b2:	0097d913          	srli	s2,a5,0x9
    800033b6:	a8dd                	j	800034ac <__adddf3+0x284>
    800033b8:	7ff00693          	li	a3,2047
    800033bc:	eed403e3          	beq	s0,a3,800032a2 <__adddf3+0x7a>
    800033c0:	03800613          	li	a2,56
    800033c4:	4685                	li	a3,1
    800033c6:	00a64e63          	blt	a2,a0,800033e2 <__adddf3+0x1ba>
    800033ca:	04000693          	li	a3,64
    800033ce:	00a75633          	srl	a2,a4,a0
    800033d2:	40a6853b          	subw	a0,a3,a0
    800033d6:	00a71733          	sll	a4,a4,a0
    800033da:	00e03733          	snez	a4,a4
    800033de:	00e666b3          	or	a3,a2,a4
    800033e2:	8f95                	sub	a5,a5,a3
    800033e4:	b7d1                	j	800033a8 <__adddf3+0x180>
    800033e6:	7ff00693          	li	a3,2047
    800033ea:	ead40ce3          	beq	s0,a3,800032a2 <__adddf3+0x7a>
    800033ee:	4685                	li	a3,1
    800033f0:	16de                	slli	a3,a3,0x37
    800033f2:	8f55                	or	a4,a4,a3
    800033f4:	b7f1                	j	800033c0 <__adddf3+0x198>
    800033f6:	c125                	beqz	a0,80003456 <__adddf3+0x22e>
    800033f8:	e429                	bnez	s0,80003442 <__adddf3+0x21a>
    800033fa:	14078e63          	beqz	a5,80003556 <__adddf3+0x32e>
    800033fe:	01051763          	bne	a0,a6,8000340c <__adddf3+0x1e4>
    80003402:	40f707b3          	sub	a5,a4,a5
    80003406:	8432                	mv	s0,a2
    80003408:	84ae                	mv	s1,a1
    8000340a:	bf79                	j	800033a8 <__adddf3+0x180>
    8000340c:	7ff00513          	li	a0,2047
    80003410:	14a60763          	beq	a2,a0,8000355e <__adddf3+0x336>
    80003414:	fff6c693          	not	a3,a3
    80003418:	2681                	sext.w	a3,a3
    8000341a:	03800813          	li	a6,56
    8000341e:	4505                	li	a0,1
    80003420:	00d84e63          	blt	a6,a3,8000343c <__adddf3+0x214>
    80003424:	04000513          	li	a0,64
    80003428:	00d7d833          	srl	a6,a5,a3
    8000342c:	40d506bb          	subw	a3,a0,a3
    80003430:	00d797b3          	sll	a5,a5,a3
    80003434:	00f037b3          	snez	a5,a5
    80003438:	00f86533          	or	a0,a6,a5
    8000343c:	40a707b3          	sub	a5,a4,a0
    80003440:	b7d9                	j	80003406 <__adddf3+0x1de>
    80003442:	7ff00513          	li	a0,2047
    80003446:	10a60c63          	beq	a2,a0,8000355e <__adddf3+0x336>
    8000344a:	4505                	li	a0,1
    8000344c:	155e                	slli	a0,a0,0x37
    8000344e:	40d006bb          	negw	a3,a3
    80003452:	8fc9                	or	a5,a5,a0
    80003454:	b7d9                	j	8000341a <__adddf3+0x1f2>
    80003456:	00140693          	addi	a3,s0,1
    8000345a:	7fe6f693          	andi	a3,a3,2046
    8000345e:	ee95                	bnez	a3,8000349a <__adddf3+0x272>
    80003460:	e405                	bnez	s0,80003488 <__adddf3+0x260>
    80003462:	e791                	bnez	a5,8000346e <__adddf3+0x246>
    80003464:	87ba                	mv	a5,a4
    80003466:	eb75                	bnez	a4,8000355a <__adddf3+0x332>
    80003468:	4781                	li	a5,0
    8000346a:	4481                	li	s1,0
    8000346c:	a045                	j	8000350c <__adddf3+0x2e4>
    8000346e:	e2070ae3          	beqz	a4,800032a2 <__adddf3+0x7a>
    80003472:	40e786b3          	sub	a3,a5,a4
    80003476:	00869613          	slli	a2,a3,0x8
    8000347a:	40f707b3          	sub	a5,a4,a5
    8000347e:	0c064e63          	bltz	a2,8000355a <__adddf3+0x332>
    80003482:	d2fd                	beqz	a3,80003468 <__adddf3+0x240>
    80003484:	87b6                	mv	a5,a3
    80003486:	bd31                	j	800032a2 <__adddf3+0x7a>
    80003488:	ee0796e3          	bnez	a5,80003374 <__adddf3+0x14c>
    8000348c:	ee0706e3          	beqz	a4,80003378 <__adddf3+0x150>
    80003490:	87ba                	mv	a5,a4
    80003492:	84ae                	mv	s1,a1
    80003494:	7ff00413          	li	s0,2047
    80003498:	b529                	j	800032a2 <__adddf3+0x7a>
    8000349a:	40e78933          	sub	s2,a5,a4
    8000349e:	00891693          	slli	a3,s2,0x8
    800034a2:	0206df63          	bgez	a3,800034e0 <__adddf3+0x2b8>
    800034a6:	40f70933          	sub	s2,a4,a5
    800034aa:	84ae                	mv	s1,a1
    800034ac:	854a                	mv	a0,s2
    800034ae:	223000ef          	jal	ra,80003ed0 <__clzdi2>
    800034b2:	ff85079b          	addiw	a5,a0,-8
    800034b6:	00f91933          	sll	s2,s2,a5
    800034ba:	0287c863          	blt	a5,s0,800034ea <__adddf3+0x2c2>
    800034be:	4087853b          	subw	a0,a5,s0
    800034c2:	2505                	addiw	a0,a0,1
    800034c4:	04000413          	li	s0,64
    800034c8:	00a957b3          	srl	a5,s2,a0
    800034cc:	40a4053b          	subw	a0,s0,a0
    800034d0:	00a91933          	sll	s2,s2,a0
    800034d4:	01203933          	snez	s2,s2
    800034d8:	0127e7b3          	or	a5,a5,s2
    800034dc:	4401                	li	s0,0
    800034de:	b3d1                	j	800032a2 <__adddf3+0x7a>
    800034e0:	fc0916e3          	bnez	s2,800034ac <__adddf3+0x284>
    800034e4:	4781                	li	a5,0
    800034e6:	4401                	li	s0,0
    800034e8:	b749                	j	8000346a <__adddf3+0x242>
    800034ea:	8c1d                	sub	s0,s0,a5
    800034ec:	57fd                	li	a5,-1
    800034ee:	17de                	slli	a5,a5,0x37
    800034f0:	17fd                	addi	a5,a5,-1
    800034f2:	00f977b3          	and	a5,s2,a5
    800034f6:	b375                	j	800032a2 <__adddf3+0x7a>
    800034f8:	87ba                	mv	a5,a4
    800034fa:	8432                	mv	s0,a2
    800034fc:	b35d                	j	800032a2 <__adddf3+0x7a>
    800034fe:	87ba                	mv	a5,a4
    80003500:	b34d                	j	800032a2 <__adddf3+0x7a>
    80003502:	87ba                	mv	a5,a4
    80003504:	bf41                	j	80003494 <__adddf3+0x26c>
    80003506:	7ff00413          	li	s0,2047
    8000350a:	4781                	li	a5,0
    8000350c:	00879713          	slli	a4,a5,0x8
    80003510:	00075b63          	bgez	a4,80003526 <__adddf3+0x2fe>
    80003514:	0405                	addi	s0,s0,1
    80003516:	7ff00713          	li	a4,2047
    8000351a:	04e40663          	beq	s0,a4,80003566 <__adddf3+0x33e>
    8000351e:	577d                	li	a4,-1
    80003520:	175e                	slli	a4,a4,0x37
    80003522:	177d                	addi	a4,a4,-1
    80003524:	8ff9                	and	a5,a5,a4
    80003526:	7ff00713          	li	a4,2047
    8000352a:	838d                	srli	a5,a5,0x3
    8000352c:	00e41663          	bne	s0,a4,80003538 <__adddf3+0x310>
    80003530:	c781                	beqz	a5,80003538 <__adddf3+0x310>
    80003532:	4785                	li	a5,1
    80003534:	17ce                	slli	a5,a5,0x33
    80003536:	4481                	li	s1,0
    80003538:	7ff47413          	andi	s0,s0,2047
    8000353c:	07b2                	slli	a5,a5,0xc
    8000353e:	1452                	slli	s0,s0,0x34
    80003540:	83b1                	srli	a5,a5,0xc
    80003542:	60e2                	ld	ra,24(sp)
    80003544:	8fc1                	or	a5,a5,s0
    80003546:	6442                	ld	s0,16(sp)
    80003548:	03f49513          	slli	a0,s1,0x3f
    8000354c:	6902                	ld	s2,0(sp)
    8000354e:	64a2                	ld	s1,8(sp)
    80003550:	8d5d                	or	a0,a0,a5
    80003552:	6105                	addi	sp,sp,32
    80003554:	8082                	ret
    80003556:	87ba                	mv	a5,a4
    80003558:	8432                	mv	s0,a2
    8000355a:	84ae                	mv	s1,a1
    8000355c:	b399                	j	800032a2 <__adddf3+0x7a>
    8000355e:	87ba                	mv	a5,a4
    80003560:	7ff00413          	li	s0,2047
    80003564:	bfdd                	j	8000355a <__adddf3+0x332>
    80003566:	4781                	li	a5,0
    80003568:	bf7d                	j	80003526 <__adddf3+0x2fe>

000000008000356a <__eqsf2>:
    8000356a:	008007b7          	lui	a5,0x800
    8000356e:	17fd                	addi	a5,a5,-1
    80003570:	00a7f6b3          	and	a3,a5,a0
    80003574:	0175561b          	srliw	a2,a0,0x17
    80003578:	8fed                	and	a5,a5,a1
    8000357a:	0175d81b          	srliw	a6,a1,0x17
    8000357e:	1682                	slli	a3,a3,0x20
    80003580:	01f5571b          	srliw	a4,a0,0x1f
    80003584:	1782                	slli	a5,a5,0x20
    80003586:	0ff67613          	andi	a2,a2,255
    8000358a:	0ff00513          	li	a0,255
    8000358e:	9281                	srli	a3,a3,0x20
    80003590:	9381                	srli	a5,a5,0x20
    80003592:	0ff87813          	andi	a6,a6,255
    80003596:	01f5d59b          	srliw	a1,a1,0x1f
    8000359a:	00a61463          	bne	a2,a0,800035a2 <__eqsf2+0x38>
    8000359e:	4505                	li	a0,1
    800035a0:	e29d                	bnez	a3,800035c6 <__eqsf2+0x5c>
    800035a2:	0ff00513          	li	a0,255
    800035a6:	00a81463          	bne	a6,a0,800035ae <__eqsf2+0x44>
    800035aa:	4505                	li	a0,1
    800035ac:	ef89                	bnez	a5,800035c6 <__eqsf2+0x5c>
    800035ae:	4505                	li	a0,1
    800035b0:	01061b63          	bne	a2,a6,800035c6 <__eqsf2+0x5c>
    800035b4:	00f69963          	bne	a3,a5,800035c6 <__eqsf2+0x5c>
    800035b8:	00b70663          	beq	a4,a1,800035c4 <__eqsf2+0x5a>
    800035bc:	e609                	bnez	a2,800035c6 <__eqsf2+0x5c>
    800035be:	00d03533          	snez	a0,a3
    800035c2:	8082                	ret
    800035c4:	4501                	li	a0,0
    800035c6:	8082                	ret

00000000800035c8 <__lesf2>:
    800035c8:	008007b7          	lui	a5,0x800
    800035cc:	17fd                	addi	a5,a5,-1
    800035ce:	00a7f6b3          	and	a3,a5,a0
    800035d2:	0175561b          	srliw	a2,a0,0x17
    800035d6:	8fed                	and	a5,a5,a1
    800035d8:	0175d71b          	srliw	a4,a1,0x17
    800035dc:	1682                	slli	a3,a3,0x20
    800035de:	1782                	slli	a5,a5,0x20
    800035e0:	0ff67613          	andi	a2,a2,255
    800035e4:	0ff00813          	li	a6,255
    800035e8:	9281                	srli	a3,a3,0x20
    800035ea:	01f5551b          	srliw	a0,a0,0x1f
    800035ee:	9381                	srli	a5,a5,0x20
    800035f0:	0ff77713          	andi	a4,a4,255
    800035f4:	01f5d59b          	srliw	a1,a1,0x1f
    800035f8:	01061563          	bne	a2,a6,80003602 <__lesf2+0x3a>
    800035fc:	c2b9                	beqz	a3,80003642 <__lesf2+0x7a>
    800035fe:	4509                	li	a0,2
    80003600:	8082                	ret
    80003602:	01071363          	bne	a4,a6,80003608 <__lesf2+0x40>
    80003606:	ffe5                	bnez	a5,800035fe <__lesf2+0x36>
    80003608:	ee1d                	bnez	a2,80003646 <__lesf2+0x7e>
    8000360a:	e311                	bnez	a4,8000360e <__lesf2+0x46>
    8000360c:	cb8d                	beqz	a5,8000363e <__lesf2+0x76>
    8000360e:	ca81                	beqz	a3,8000361e <__lesf2+0x56>
    80003610:	00b51463          	bne	a0,a1,80003618 <__lesf2+0x50>
    80003614:	00c75963          	bge	a4,a2,80003626 <__lesf2+0x5e>
    80003618:	c10d                	beqz	a0,8000363a <__lesf2+0x72>
    8000361a:	557d                	li	a0,-1
    8000361c:	8082                	ret
    8000361e:	557d                	li	a0,-1
    80003620:	c591                	beqz	a1,8000362c <__lesf2+0x64>
    80003622:	852e                	mv	a0,a1
    80003624:	8082                	ret
    80003626:	00e65463          	bge	a2,a4,8000362e <__lesf2+0x66>
    8000362a:	d965                	beqz	a0,8000361a <__lesf2+0x52>
    8000362c:	8082                	ret
    8000362e:	fed7e5e3          	bltu	a5,a3,80003618 <__lesf2+0x50>
    80003632:	fef6ece3          	bltu	a3,a5,8000362a <__lesf2+0x62>
    80003636:	4501                	li	a0,0
    80003638:	8082                	ret
    8000363a:	4505                	li	a0,1
    8000363c:	8082                	ret
    8000363e:	dee5                	beqz	a3,80003636 <__lesf2+0x6e>
    80003640:	bfe1                	j	80003618 <__lesf2+0x50>
    80003642:	fcc702e3          	beq	a4,a2,80003606 <__lesf2+0x3e>
    80003646:	f769                	bnez	a4,80003610 <__lesf2+0x48>
    80003648:	dbe1                	beqz	a5,80003618 <__lesf2+0x50>
    8000364a:	b7d9                	j	80003610 <__lesf2+0x48>

000000008000364c <__mulsf3>:
    8000364c:	7139                	addi	sp,sp,-64
    8000364e:	f426                	sd	s1,40(sp)
    80003650:	0175549b          	srliw	s1,a0,0x17
    80003654:	f822                	sd	s0,48(sp)
    80003656:	f04a                	sd	s2,32(sp)
    80003658:	ec4e                	sd	s3,24(sp)
    8000365a:	e852                	sd	s4,16(sp)
    8000365c:	02951413          	slli	s0,a0,0x29
    80003660:	fc06                	sd	ra,56(sp)
    80003662:	e456                	sd	s5,8(sp)
    80003664:	0ff4f493          	andi	s1,s1,255
    80003668:	8a2e                	mv	s4,a1
    8000366a:	02945993          	srli	s3,s0,0x29
    8000366e:	01f5591b          	srliw	s2,a0,0x1f
    80003672:	c8a5                	beqz	s1,800036e2 <__mulsf3+0x96>
    80003674:	0ff00793          	li	a5,255
    80003678:	08f48463          	beq	s1,a5,80003700 <__mulsf3+0xb4>
    8000367c:	00399413          	slli	s0,s3,0x3
    80003680:	040007b7          	lui	a5,0x4000
    80003684:	00f469b3          	or	s3,s0,a5
    80003688:	f8148493          	addi	s1,s1,-127
    8000368c:	4a81                	li	s5,0
    8000368e:	017a579b          	srliw	a5,s4,0x17
    80003692:	029a1413          	slli	s0,s4,0x29
    80003696:	0ff7f793          	andi	a5,a5,255
    8000369a:	9025                	srli	s0,s0,0x29
    8000369c:	01fa5a1b          	srliw	s4,s4,0x1f
    800036a0:	cbb5                	beqz	a5,80003714 <__mulsf3+0xc8>
    800036a2:	0ff00713          	li	a4,255
    800036a6:	08e78563          	beq	a5,a4,80003730 <__mulsf3+0xe4>
    800036aa:	040e                	slli	s0,s0,0x3
    800036ac:	04000737          	lui	a4,0x4000
    800036b0:	8c59                	or	s0,s0,a4
    800036b2:	f8178793          	addi	a5,a5,-127 # 3ffff81 <_HEAP_SIZE+0xa615>
    800036b6:	4701                	li	a4,0
    800036b8:	94be                	add	s1,s1,a5
    800036ba:	002a9793          	slli	a5,s5,0x2
    800036be:	8fd9                	or	a5,a5,a4
    800036c0:	17fd                	addi	a5,a5,-1
    800036c2:	4639                	li	a2,14
    800036c4:	01494533          	xor	a0,s2,s4
    800036c8:	00148693          	addi	a3,s1,1
    800036cc:	06f66b63          	bltu	a2,a5,80003742 <__mulsf3+0xf6>
    800036d0:	00001617          	auipc	a2,0x1
    800036d4:	7bc60613          	addi	a2,a2,1980 # 80004e8c <__rodata_start+0xeec>
    800036d8:	078a                	slli	a5,a5,0x2
    800036da:	97b2                	add	a5,a5,a2
    800036dc:	439c                	lw	a5,0(a5)
    800036de:	97b2                	add	a5,a5,a2
    800036e0:	8782                	jr	a5
    800036e2:	02098663          	beqz	s3,8000370e <__mulsf3+0xc2>
    800036e6:	854e                	mv	a0,s3
    800036e8:	7e8000ef          	jal	ra,80003ed0 <__clzdi2>
    800036ec:	0005079b          	sext.w	a5,a0
    800036f0:	faa00493          	li	s1,-86
    800036f4:	fdb5051b          	addiw	a0,a0,-37
    800036f8:	00a999b3          	sll	s3,s3,a0
    800036fc:	8c9d                	sub	s1,s1,a5
    800036fe:	b779                	j	8000368c <__mulsf3+0x40>
    80003700:	0ff00493          	li	s1,255
    80003704:	4a89                	li	s5,2
    80003706:	f80984e3          	beqz	s3,8000368e <__mulsf3+0x42>
    8000370a:	4a8d                	li	s5,3
    8000370c:	b749                	j	8000368e <__mulsf3+0x42>
    8000370e:	4481                	li	s1,0
    80003710:	4a85                	li	s5,1
    80003712:	bfb5                	j	8000368e <__mulsf3+0x42>
    80003714:	c405                	beqz	s0,8000373c <__mulsf3+0xf0>
    80003716:	8522                	mv	a0,s0
    80003718:	7b8000ef          	jal	ra,80003ed0 <__clzdi2>
    8000371c:	0005071b          	sext.w	a4,a0
    80003720:	faa00793          	li	a5,-86
    80003724:	fdb5051b          	addiw	a0,a0,-37
    80003728:	00a41433          	sll	s0,s0,a0
    8000372c:	8f99                	sub	a5,a5,a4
    8000372e:	b761                	j	800036b6 <__mulsf3+0x6a>
    80003730:	0ff00793          	li	a5,255
    80003734:	4709                	li	a4,2
    80003736:	d049                	beqz	s0,800036b8 <__mulsf3+0x6c>
    80003738:	470d                	li	a4,3
    8000373a:	bfbd                	j	800036b8 <__mulsf3+0x6c>
    8000373c:	4781                	li	a5,0
    8000373e:	4705                	li	a4,1
    80003740:	bfa5                	j	800036b8 <__mulsf3+0x6c>
    80003742:	02898433          	mul	s0,s3,s0
    80003746:	01a45793          	srli	a5,s0,0x1a
    8000374a:	141a                	slli	s0,s0,0x26
    8000374c:	00803433          	snez	s0,s0
    80003750:	02479713          	slli	a4,a5,0x24
    80003754:	8c5d                	or	s0,s0,a5
    80003756:	06075763          	bgez	a4,800037c4 <__mulsf3+0x178>
    8000375a:	00145793          	srli	a5,s0,0x1
    8000375e:	8805                	andi	s0,s0,1
    80003760:	8c5d                	or	s0,s0,a5
    80003762:	07f68793          	addi	a5,a3,127
    80003766:	06f05163          	blez	a5,800037c8 <__mulsf3+0x17c>
    8000376a:	00747713          	andi	a4,s0,7
    8000376e:	c719                	beqz	a4,8000377c <__mulsf3+0x130>
    80003770:	00f47713          	andi	a4,s0,15
    80003774:	4611                	li	a2,4
    80003776:	00c70363          	beq	a4,a2,8000377c <__mulsf3+0x130>
    8000377a:	0411                	addi	s0,s0,4
    8000377c:	02441713          	slli	a4,s0,0x24
    80003780:	00075863          	bgez	a4,80003790 <__mulsf3+0x144>
    80003784:	f80007b7          	lui	a5,0xf8000
    80003788:	17fd                	addi	a5,a5,-1
    8000378a:	8c7d                	and	s0,s0,a5
    8000378c:	08068793          	addi	a5,a3,128
    80003790:	0fe00713          	li	a4,254
    80003794:	800d                	srli	s0,s0,0x3
    80003796:	06f75f63          	bge	a4,a5,80003814 <__mulsf3+0x1c8>
    8000379a:	4401                	li	s0,0
    8000379c:	0ff00793          	li	a5,255
    800037a0:	a895                	j	80003814 <__mulsf3+0x1c8>
    800037a2:	854a                	mv	a0,s2
    800037a4:	844e                	mv	s0,s3
    800037a6:	8756                	mv	a4,s5
    800037a8:	4789                	li	a5,2
    800037aa:	fef708e3          	beq	a4,a5,8000379a <__mulsf3+0x14e>
    800037ae:	478d                	li	a5,3
    800037b0:	04f70d63          	beq	a4,a5,8000380a <__mulsf3+0x1be>
    800037b4:	4785                	li	a5,1
    800037b6:	faf716e3          	bne	a4,a5,80003762 <__mulsf3+0x116>
    800037ba:	4401                	li	s0,0
    800037bc:	4781                	li	a5,0
    800037be:	a899                	j	80003814 <__mulsf3+0x1c8>
    800037c0:	8552                	mv	a0,s4
    800037c2:	b7dd                	j	800037a8 <__mulsf3+0x15c>
    800037c4:	86a6                	mv	a3,s1
    800037c6:	bf71                	j	80003762 <__mulsf3+0x116>
    800037c8:	4705                	li	a4,1
    800037ca:	8f1d                	sub	a4,a4,a5
    800037cc:	47ed                	li	a5,27
    800037ce:	fee7c6e3          	blt	a5,a4,800037ba <__mulsf3+0x16e>
    800037d2:	04000693          	li	a3,64
    800037d6:	00e457b3          	srl	a5,s0,a4
    800037da:	40e6873b          	subw	a4,a3,a4
    800037de:	00e41433          	sll	s0,s0,a4
    800037e2:	00803433          	snez	s0,s0
    800037e6:	8c5d                	or	s0,s0,a5
    800037e8:	00747793          	andi	a5,s0,7
    800037ec:	c799                	beqz	a5,800037fa <__mulsf3+0x1ae>
    800037ee:	00f47793          	andi	a5,s0,15
    800037f2:	4711                	li	a4,4
    800037f4:	00e78363          	beq	a5,a4,800037fa <__mulsf3+0x1ae>
    800037f8:	0411                	addi	s0,s0,4
    800037fa:	02541793          	slli	a5,s0,0x25
    800037fe:	800d                	srli	s0,s0,0x3
    80003800:	fa07dee3          	bgez	a5,800037bc <__mulsf3+0x170>
    80003804:	4401                	li	s0,0
    80003806:	4785                	li	a5,1
    80003808:	a031                	j	80003814 <__mulsf3+0x1c8>
    8000380a:	00400437          	lui	s0,0x400
    8000380e:	0ff00793          	li	a5,255
